

Microchip Technology PIC PRO Macro Assembler V1.38 build -256452561 
                                                                                               Fri Jan 20 15:56:58 2017

Microchip Technology Omniscient Code Generator v1.38 (PRO mode) build 201607010351
     1                           	processor	12F683
     2                           	opt	pw 120
     3                           	opt	pm
     4                           	psect	stringtext,global,reloc=256,class=STRCODE,delta=2
     5                           	psect	cinit,global,class=CODE,merge=1,delta=2
     6                           	psect	bssEEDATA,global,class=EEDATA,space=3,delta=2
     7                           	psect	bssCOMMON,global,class=COMMON,space=1,delta=1
     8                           	psect	bssBANK0,global,class=BANK0,space=1,delta=1
     9                           	psect	clrtext,global,class=CODE,delta=2
    10                           	psect	cstackCOMMON,global,class=COMMON,space=1,delta=1
    11                           	psect	cstackBANK0,global,class=BANK0,space=1,delta=1
    12                           	psect	maintext,global,class=CODE,split=1,delta=2
    13                           	psect	text1,local,class=CODE,merge=1,delta=2
    14                           	psect	text2,local,class=CODE,merge=1,delta=2
    15                           	psect	text3,local,class=CODE,merge=1,delta=2
    16                           	psect	text4,local,class=CODE,merge=1,delta=2
    17                           	psect	text5,local,class=CODE,merge=1,delta=2
    18                           	psect	text6,local,class=CODE,merge=1,delta=2
    19                           	psect	text7,local,class=CODE,merge=1,delta=2
    20                           	psect	text8,local,class=CODE,merge=1,delta=2
    21                           	psect	text9,local,class=CODE,merge=1,delta=2
    22                           	psect	text10,local,class=CODE,merge=1,delta=2
    23                           	psect	text11,local,class=CODE,merge=1,delta=2
    24                           	psect	text12,local,class=CODE,merge=1,delta=2
    25                           	psect	text13,local,class=CODE,merge=1,delta=2
    26                           	psect	text14,local,class=CODE,merge=1,delta=2
    27                           	psect	text15,local,class=CODE,merge=1,delta=2
    28                           	psect	intentry,global,class=CODE,delta=2
    29                           	psect	text16,local,class=CODE,merge=1,delta=2
    30                           	psect	text17,local,class=CODE,merge=1,delta=2
    31                           	psect	text18,local,class=CODE,merge=1,delta=2
    32                           	psect	pa_nodes,global,class=CODE,delta=2
    33                           	dabs	1,0x7E,2
    34  0000                     	;# 
    35  0001                     	;# 
    36  0002                     	;# 
    37  0003                     	;# 
    38  0004                     	;# 
    39  0005                     	;# 
    40  000A                     	;# 
    41  000B                     	;# 
    42  000C                     	;# 
    43  000E                     	;# 
    44  000E                     	;# 
    45  000F                     	;# 
    46  0010                     	;# 
    47  0011                     	;# 
    48  0012                     	;# 
    49  0013                     	;# 
    50  0013                     	;# 
    51  0014                     	;# 
    52  0015                     	;# 
    53  0018                     	;# 
    54  0019                     	;# 
    55  001A                     	;# 
    56  001E                     	;# 
    57  001F                     	;# 
    58  0081                     	;# 
    59  0085                     	;# 
    60  008C                     	;# 
    61  008E                     	;# 
    62  008F                     	;# 
    63  0090                     	;# 
    64  0092                     	;# 
    65  0095                     	;# 
    66  0095                     	;# 
    67  0096                     	;# 
    68  0096                     	;# 
    69  0099                     	;# 
    70  009A                     	;# 
    71  009A                     	;# 
    72  009B                     	;# 
    73  009C                     	;# 
    74  009D                     	;# 
    75  009E                     	;# 
    76  009F                     	;# 
    77  0000                     	;# 
    78  0001                     	;# 
    79  0002                     	;# 
    80  0003                     	;# 
    81  0004                     	;# 
    82  0005                     	;# 
    83  000A                     	;# 
    84  000B                     	;# 
    85  000C                     	;# 
    86  000E                     	;# 
    87  000E                     	;# 
    88  000F                     	;# 
    89  0010                     	;# 
    90  0011                     	;# 
    91  0012                     	;# 
    92  0013                     	;# 
    93  0013                     	;# 
    94  0014                     	;# 
    95  0015                     	;# 
    96  0018                     	;# 
    97  0019                     	;# 
    98  001A                     	;# 
    99  001E                     	;# 
   100  001F                     	;# 
   101  0081                     	;# 
   102  0085                     	;# 
   103  008C                     	;# 
   104  008E                     	;# 
   105  008F                     	;# 
   106  0090                     	;# 
   107  0092                     	;# 
   108  0095                     	;# 
   109  0095                     	;# 
   110  0096                     	;# 
   111  0096                     	;# 
   112  0099                     	;# 
   113  009A                     	;# 
   114  009A                     	;# 
   115  009B                     	;# 
   116  009C                     	;# 
   117  009D                     	;# 
   118  009E                     	;# 
   119  009F                     	;# 
   120  0000                     	;# 
   121  0001                     	;# 
   122  0002                     	;# 
   123  0003                     	;# 
   124  0004                     	;# 
   125  0005                     	;# 
   126  000A                     	;# 
   127  000B                     	;# 
   128  000C                     	;# 
   129  000E                     	;# 
   130  000E                     	;# 
   131  000F                     	;# 
   132  0010                     	;# 
   133  0011                     	;# 
   134  0012                     	;# 
   135  0013                     	;# 
   136  0013                     	;# 
   137  0014                     	;# 
   138  0015                     	;# 
   139  0018                     	;# 
   140  0019                     	;# 
   141  001A                     	;# 
   142  001E                     	;# 
   143  001F                     	;# 
   144  0081                     	;# 
   145  0085                     	;# 
   146  008C                     	;# 
   147  008E                     	;# 
   148  008F                     	;# 
   149  0090                     	;# 
   150  0092                     	;# 
   151  0095                     	;# 
   152  0095                     	;# 
   153  0096                     	;# 
   154  0096                     	;# 
   155  0099                     	;# 
   156  009A                     	;# 
   157  009A                     	;# 
   158  009B                     	;# 
   159  009C                     	;# 
   160  009D                     	;# 
   161  009E                     	;# 
   162  009F                     	;# 
   163  0000                     	;# 
   164  0001                     	;# 
   165  0002                     	;# 
   166  0003                     	;# 
   167  0004                     	;# 
   168  0005                     	;# 
   169  000A                     	;# 
   170  000B                     	;# 
   171  000C                     	;# 
   172  000E                     	;# 
   173  000E                     	;# 
   174  000F                     	;# 
   175  0010                     	;# 
   176  0011                     	;# 
   177  0012                     	;# 
   178  0013                     	;# 
   179  0013                     	;# 
   180  0014                     	;# 
   181  0015                     	;# 
   182  0018                     	;# 
   183  0019                     	;# 
   184  001A                     	;# 
   185  001E                     	;# 
   186  001F                     	;# 
   187  0081                     	;# 
   188  0085                     	;# 
   189  008C                     	;# 
   190  008E                     	;# 
   191  008F                     	;# 
   192  0090                     	;# 
   193  0092                     	;# 
   194  0095                     	;# 
   195  0095                     	;# 
   196  0096                     	;# 
   197  0096                     	;# 
   198  0099                     	;# 
   199  009A                     	;# 
   200  009A                     	;# 
   201  009B                     	;# 
   202  009C                     	;# 
   203  009D                     	;# 
   204  009E                     	;# 
   205  009F                     	;# 
   206  0000                     	;# 
   207  0001                     	;# 
   208  0002                     	;# 
   209  0003                     	;# 
   210  0004                     	;# 
   211  0005                     	;# 
   212  000A                     	;# 
   213  000B                     	;# 
   214  000C                     	;# 
   215  000E                     	;# 
   216  000E                     	;# 
   217  000F                     	;# 
   218  0010                     	;# 
   219  0011                     	;# 
   220  0012                     	;# 
   221  0013                     	;# 
   222  0013                     	;# 
   223  0014                     	;# 
   224  0015                     	;# 
   225  0018                     	;# 
   226  0019                     	;# 
   227  001A                     	;# 
   228  001E                     	;# 
   229  001F                     	;# 
   230  0081                     	;# 
   231  0085                     	;# 
   232  008C                     	;# 
   233  008E                     	;# 
   234  008F                     	;# 
   235  0090                     	;# 
   236  0092                     	;# 
   237  0095                     	;# 
   238  0095                     	;# 
   239  0096                     	;# 
   240  0096                     	;# 
   241  0099                     	;# 
   242  009A                     	;# 
   243  009A                     	;# 
   244  009B                     	;# 
   245  009C                     	;# 
   246  009D                     	;# 
   247  009E                     	;# 
   248  009F                     	;# 
   249                           
   250                           	psect	stringtext
   251  0100                     __pstringtext:	
   252  0100                     stringtab:	
   253  0100                     __stringtab:	
   254                           
   255                           ;	String table - string pointers are 2 bytes each
   256  0100  1BFF               	btfsc	btemp+1,7
   257  0101  290A               	ljmp	stringcode
   258  0102  1383               	bcf	3,7
   259  0103  187F               	btfsc	btemp+1,0
   260  0104  1783               	bsf	3,7
   261  0105  0800               	movf	0,w
   262  0106  0A84               	incf	4,f
   263  0107  1903               	skipnz
   264  0108  0AFF               	incf	btemp+1,f
   265  0109  0008               	return
   266  010A                     stringcode:	
   267  010A  087F               	movf	btemp+1,w
   268  010B  397F               	andlw	127
   269  010C  008A               	movwf	10
   270  010D  0804               	movf	4,w
   271  010E  0A84               	incf	4,f
   272  010F  1903               	skipnz
   273  0110  0AFF               	incf	btemp+1,f
   274  0111  0082               	movwf	2
   275  0112                     __stringbase:	
   276  0112                     __end_of__stringtab:	
   277  0112                     _ROM_COMBO_Patterns:	
   278  0112  3403               	retlw	3
   279  0113  3402               	retlw	2
   280  0114  3403               	retlw	3
   281  0115  3402               	retlw	2
   282  0116  3463               	retlw	99
   283  0117  3463               	retlw	99
   284  0118  3463               	retlw	99
   285  0119  3463               	retlw	99
   286  011A  3463               	retlw	99
   287  011B  3463               	retlw	99
   288  011C  3463               	retlw	99
   289  011D  3463               	retlw	99
   290  011E  3463               	retlw	99
   291  011F  3463               	retlw	99
   292  0120  3463               	retlw	99
   293  0121  3463               	retlw	99
   294  0122  3401               	retlw	1
   295  0123  3400               	retlw	0
   296  0124  3401               	retlw	1
   297  0125  3400               	retlw	0
   298  0126  3463               	retlw	99
   299  0127  3463               	retlw	99
   300  0128  3463               	retlw	99
   301  0129  3463               	retlw	99
   302  012A  3463               	retlw	99
   303  012B  3463               	retlw	99
   304  012C  3463               	retlw	99
   305  012D  3463               	retlw	99
   306  012E  3463               	retlw	99
   307  012F  3463               	retlw	99
   308  0130  3463               	retlw	99
   309  0131  3463               	retlw	99
   310  0132  3403               	retlw	3
   311  0133  3402               	retlw	2
   312  0134  3403               	retlw	3
   313  0135  3402               	retlw	2
   314  0136  3403               	retlw	3
   315  0137  3402               	retlw	2
   316  0138  3401               	retlw	1
   317  0139  3400               	retlw	0
   318  013A  3401               	retlw	1
   319  013B  3400               	retlw	0
   320  013C  3401               	retlw	1
   321  013D  3400               	retlw	0
   322  013E  3401               	retlw	1
   323  013F  3400               	retlw	0
   324  0140  3463               	retlw	99
   325  0141  3463               	retlw	99
   326  0142  3404               	retlw	4
   327  0143  3402               	retlw	2
   328  0144  3404               	retlw	4
   329  0145  3402               	retlw	2
   330  0146  3463               	retlw	99
   331  0147  3463               	retlw	99
   332  0148  3463               	retlw	99
   333  0149  3463               	retlw	99
   334  014A  3463               	retlw	99
   335  014B  3463               	retlw	99
   336  014C  3463               	retlw	99
   337  014D  3463               	retlw	99
   338  014E  3463               	retlw	99
   339  014F  3463               	retlw	99
   340  0150  3463               	retlw	99
   341  0151  3463               	retlw	99
   342  0152  3406               	retlw	6
   343  0153  3400               	retlw	0
   344  0154  3406               	retlw	6
   345  0155  3400               	retlw	0
   346  0156  3463               	retlw	99
   347  0157  3463               	retlw	99
   348  0158  3463               	retlw	99
   349  0159  3463               	retlw	99
   350  015A  3463               	retlw	99
   351  015B  3463               	retlw	99
   352  015C  3463               	retlw	99
   353  015D  3463               	retlw	99
   354  015E  3463               	retlw	99
   355  015F  3463               	retlw	99
   356  0160  3463               	retlw	99
   357  0161  3463               	retlw	99
   358  0162  3404               	retlw	4
   359  0163  3402               	retlw	2
   360  0164  3404               	retlw	4
   361  0165  3402               	retlw	2
   362  0166  3404               	retlw	4
   363  0167  3402               	retlw	2
   364  0168  3406               	retlw	6
   365  0169  3400               	retlw	0
   366  016A  3406               	retlw	6
   367  016B  3400               	retlw	0
   368  016C  3406               	retlw	6
   369  016D  3400               	retlw	0
   370  016E  3406               	retlw	6
   371  016F  3400               	retlw	0
   372  0170  3463               	retlw	99
   373  0171  3463               	retlw	99
   374  0172  3405               	retlw	5
   375  0173  3402               	retlw	2
   376  0174  3405               	retlw	5
   377  0175  3402               	retlw	2
   378  0176  3463               	retlw	99
   379  0177  3463               	retlw	99
   380  0178  3463               	retlw	99
   381  0179  3463               	retlw	99
   382  017A  3463               	retlw	99
   383  017B  3463               	retlw	99
   384  017C  3463               	retlw	99
   385  017D  3463               	retlw	99
   386  017E  3463               	retlw	99
   387  017F  3463               	retlw	99
   388  0180  3463               	retlw	99
   389  0181  3463               	retlw	99
   390  0182  3407               	retlw	7
   391  0183  3400               	retlw	0
   392  0184  3407               	retlw	7
   393  0185  3400               	retlw	0
   394  0186  3463               	retlw	99
   395  0187  3463               	retlw	99
   396  0188  3463               	retlw	99
   397  0189  3463               	retlw	99
   398  018A  3463               	retlw	99
   399  018B  3463               	retlw	99
   400  018C  3463               	retlw	99
   401  018D  3463               	retlw	99
   402  018E  3463               	retlw	99
   403  018F  3463               	retlw	99
   404  0190  3463               	retlw	99
   405  0191  3463               	retlw	99
   406  0192  3405               	retlw	5
   407  0193  3402               	retlw	2
   408  0194  3405               	retlw	5
   409  0195  3402               	retlw	2
   410  0196  3405               	retlw	5
   411  0197  3402               	retlw	2
   412  0198  3407               	retlw	7
   413  0199  3400               	retlw	0
   414  019A  3407               	retlw	7
   415  019B  3400               	retlw	0
   416  019C  3407               	retlw	7
   417  019D  3400               	retlw	0
   418  019E  3407               	retlw	7
   419  019F  3400               	retlw	0
   420  01A0  3463               	retlw	99
   421  01A1  3463               	retlw	99
   422  01A2  3408               	retlw	8
   423  01A3  3409               	retlw	9
   424  01A4  3408               	retlw	8
   425  01A5  3409               	retlw	9
   426  01A6  3463               	retlw	99
   427  01A7  3463               	retlw	99
   428  01A8  3463               	retlw	99
   429  01A9  3463               	retlw	99
   430  01AA  3463               	retlw	99
   431  01AB  3463               	retlw	99
   432  01AC  3463               	retlw	99
   433  01AD  3463               	retlw	99
   434  01AE  3463               	retlw	99
   435  01AF  3463               	retlw	99
   436  01B0  3463               	retlw	99
   437  01B1  3463               	retlw	99
   438  01B2  340B               	retlw	11
   439  01B3  340C               	retlw	12
   440  01B4  340B               	retlw	11
   441  01B5  340C               	retlw	12
   442  01B6  3463               	retlw	99
   443  01B7  3463               	retlw	99
   444  01B8  3463               	retlw	99
   445  01B9  3463               	retlw	99
   446  01BA  3463               	retlw	99
   447  01BB  3463               	retlw	99
   448  01BC  3463               	retlw	99
   449  01BD  3463               	retlw	99
   450  01BE  3463               	retlw	99
   451  01BF  3463               	retlw	99
   452  01C0  3463               	retlw	99
   453  01C1  3463               	retlw	99
   454  01C2  3408               	retlw	8
   455  01C3  3409               	retlw	9
   456  01C4  3408               	retlw	8
   457  01C5  3409               	retlw	9
   458  01C6  3408               	retlw	8
   459  01C7  3409               	retlw	9
   460  01C8  340B               	retlw	11
   461  01C9  340C               	retlw	12
   462  01CA  340B               	retlw	11
   463  01CB  340C               	retlw	12
   464  01CC  340B               	retlw	11
   465  01CD  340C               	retlw	12
   466  01CE  340B               	retlw	11
   467  01CF  340C               	retlw	12
   468  01D0  3463               	retlw	99
   469  01D1  3463               	retlw	99
   470  01D2  340E               	retlw	14
   471  01D3  340F               	retlw	15
   472  01D4  340E               	retlw	14
   473  01D5  340F               	retlw	15
   474  01D6  3463               	retlw	99
   475  01D7  3463               	retlw	99
   476  01D8  3463               	retlw	99
   477  01D9  3463               	retlw	99
   478  01DA  3463               	retlw	99
   479  01DB  3463               	retlw	99
   480  01DC  3463               	retlw	99
   481  01DD  3463               	retlw	99
   482  01DE  3463               	retlw	99
   483  01DF  3463               	retlw	99
   484  01E0  3463               	retlw	99
   485  01E1  3463               	retlw	99
   486  01E2  3411               	retlw	17
   487  01E3  3412               	retlw	18
   488  01E4  3411               	retlw	17
   489  01E5  3412               	retlw	18
   490  01E6  3463               	retlw	99
   491  01E7  3463               	retlw	99
   492  01E8  3463               	retlw	99
   493  01E9  3463               	retlw	99
   494  01EA  3463               	retlw	99
   495  01EB  3463               	retlw	99
   496  01EC  3463               	retlw	99
   497  01ED  3463               	retlw	99
   498  01EE  3463               	retlw	99
   499  01EF  3463               	retlw	99
   500  01F0  3463               	retlw	99
   501  01F1  3463               	retlw	99
   502  01F2  340E               	retlw	14
   503  01F3  340F               	retlw	15
   504  01F4  340E               	retlw	14
   505  01F5  340F               	retlw	15
   506  01F6  340E               	retlw	14
   507  01F7  340F               	retlw	15
   508  01F8  3411               	retlw	17
   509  01F9  3412               	retlw	18
   510  01FA  3411               	retlw	17
   511  01FB  3412               	retlw	18
   512  01FC  3411               	retlw	17
   513  01FD  3412               	retlw	18
   514  01FE  3411               	retlw	17
   515  01FF  3412               	retlw	18
   516  0200  3463               	retlw	99
   517  0201  3463               	retlw	99
   518  0202  3414               	retlw	20
   519  0203  3415               	retlw	21
   520  0204  3414               	retlw	20
   521  0205  3415               	retlw	21
   522  0206  3463               	retlw	99
   523  0207  3463               	retlw	99
   524  0208  3463               	retlw	99
   525  0209  3463               	retlw	99
   526  020A  3463               	retlw	99
   527  020B  3463               	retlw	99
   528  020C  3463               	retlw	99
   529  020D  3463               	retlw	99
   530  020E  3463               	retlw	99
   531  020F  3463               	retlw	99
   532  0210  3463               	retlw	99
   533  0211  3463               	retlw	99
   534  0212  3417               	retlw	23
   535  0213  3418               	retlw	24
   536  0214  3417               	retlw	23
   537  0215  3418               	retlw	24
   538  0216  3463               	retlw	99
   539  0217  3463               	retlw	99
   540  0218  3463               	retlw	99
   541  0219  3463               	retlw	99
   542  021A  3463               	retlw	99
   543  021B  3463               	retlw	99
   544  021C  3463               	retlw	99
   545  021D  3463               	retlw	99
   546  021E  3463               	retlw	99
   547  021F  3463               	retlw	99
   548  0220  3463               	retlw	99
   549  0221  3463               	retlw	99
   550  0222  3414               	retlw	20
   551  0223  3415               	retlw	21
   552  0224  3414               	retlw	20
   553  0225  3415               	retlw	21
   554  0226  3414               	retlw	20
   555  0227  3415               	retlw	21
   556  0228  3417               	retlw	23
   557  0229  3418               	retlw	24
   558  022A  3417               	retlw	23
   559  022B  3418               	retlw	24
   560  022C  3417               	retlw	23
   561  022D  3418               	retlw	24
   562  022E  3417               	retlw	23
   563  022F  3418               	retlw	24
   564  0230  3463               	retlw	99
   565  0231  3463               	retlw	99
   566  0232  3408               	retlw	8
   567  0233  340A               	retlw	10
   568  0234  3409               	retlw	9
   569  0235  340A               	retlw	10
   570  0236  3463               	retlw	99
   571  0237  3463               	retlw	99
   572  0238  3463               	retlw	99
   573  0239  3463               	retlw	99
   574  023A  3463               	retlw	99
   575  023B  3463               	retlw	99
   576  023C  3463               	retlw	99
   577  023D  3463               	retlw	99
   578  023E  3463               	retlw	99
   579  023F  3463               	retlw	99
   580  0240  3463               	retlw	99
   581  0241  3463               	retlw	99
   582  0242  340B               	retlw	11
   583  0243  340D               	retlw	13
   584  0244  340C               	retlw	12
   585  0245  340D               	retlw	13
   586  0246  3463               	retlw	99
   587  0247  3463               	retlw	99
   588  0248  3463               	retlw	99
   589  0249  3463               	retlw	99
   590  024A  3463               	retlw	99
   591  024B  3463               	retlw	99
   592  024C  3463               	retlw	99
   593  024D  3463               	retlw	99
   594  024E  3463               	retlw	99
   595  024F  3463               	retlw	99
   596  0250  3463               	retlw	99
   597  0251  3463               	retlw	99
   598  0252  3408               	retlw	8
   599  0253  340A               	retlw	10
   600  0254  3409               	retlw	9
   601  0255  340A               	retlw	10
   602  0256  3408               	retlw	8
   603  0257  340A               	retlw	10
   604  0258  340C               	retlw	12
   605  0259  340D               	retlw	13
   606  025A  340B               	retlw	11
   607  025B  340D               	retlw	13
   608  025C  340C               	retlw	12
   609  025D  340D               	retlw	13
   610  025E  340B               	retlw	11
   611  025F  340D               	retlw	13
   612  0260  340C               	retlw	12
   613  0261  340D               	retlw	13
   614  0262  340E               	retlw	14
   615  0263  3410               	retlw	16
   616  0264  340F               	retlw	15
   617  0265  3410               	retlw	16
   618  0266  3463               	retlw	99
   619  0267  3463               	retlw	99
   620  0268  3463               	retlw	99
   621  0269  3463               	retlw	99
   622  026A  3463               	retlw	99
   623  026B  3463               	retlw	99
   624  026C  3463               	retlw	99
   625  026D  3463               	retlw	99
   626  026E  3463               	retlw	99
   627  026F  3463               	retlw	99
   628  0270  3463               	retlw	99
   629  0271  3463               	retlw	99
   630  0272  3411               	retlw	17
   631  0273  3413               	retlw	19
   632  0274  3412               	retlw	18
   633  0275  3413               	retlw	19
   634  0276  3463               	retlw	99
   635  0277  3463               	retlw	99
   636  0278  3463               	retlw	99
   637  0279  3463               	retlw	99
   638  027A  3463               	retlw	99
   639  027B  3463               	retlw	99
   640  027C  3463               	retlw	99
   641  027D  3463               	retlw	99
   642  027E  3463               	retlw	99
   643  027F  3463               	retlw	99
   644  0280  3463               	retlw	99
   645  0281  3463               	retlw	99
   646  0282  340E               	retlw	14
   647  0283  3410               	retlw	16
   648  0284  340F               	retlw	15
   649  0285  3410               	retlw	16
   650  0286  340E               	retlw	14
   651  0287  3410               	retlw	16
   652  0288  3412               	retlw	18
   653  0289  3413               	retlw	19
   654  028A  3411               	retlw	17
   655  028B  3413               	retlw	19
   656  028C  3412               	retlw	18
   657  028D  3413               	retlw	19
   658  028E  3411               	retlw	17
   659  028F  3413               	retlw	19
   660  0290  3412               	retlw	18
   661  0291  3413               	retlw	19
   662  0292  3414               	retlw	20
   663  0293  3416               	retlw	22
   664  0294  3415               	retlw	21
   665  0295  3416               	retlw	22
   666  0296  3463               	retlw	99
   667  0297  3463               	retlw	99
   668  0298  3463               	retlw	99
   669  0299  3463               	retlw	99
   670  029A  3463               	retlw	99
   671  029B  3463               	retlw	99
   672  029C  3463               	retlw	99
   673  029D  3463               	retlw	99
   674  029E  3463               	retlw	99
   675  029F  3463               	retlw	99
   676  02A0  3463               	retlw	99
   677  02A1  3463               	retlw	99
   678  02A2  3417               	retlw	23
   679  02A3  3419               	retlw	25
   680  02A4  3418               	retlw	24
   681  02A5  3419               	retlw	25
   682  02A6  3463               	retlw	99
   683  02A7  3463               	retlw	99
   684  02A8  3463               	retlw	99
   685  02A9  3463               	retlw	99
   686  02AA  3463               	retlw	99
   687  02AB  3463               	retlw	99
   688  02AC  3463               	retlw	99
   689  02AD  3463               	retlw	99
   690  02AE  3463               	retlw	99
   691  02AF  3463               	retlw	99
   692  02B0  3463               	retlw	99
   693  02B1  3463               	retlw	99
   694  02B2  3414               	retlw	20
   695  02B3  3416               	retlw	22
   696  02B4  3415               	retlw	21
   697  02B5  3416               	retlw	22
   698  02B6  3414               	retlw	20
   699  02B7  3416               	retlw	22
   700  02B8  3418               	retlw	24
   701  02B9  3419               	retlw	25
   702  02BA  3417               	retlw	23
   703  02BB  3419               	retlw	25
   704  02BC  3418               	retlw	24
   705  02BD  3419               	retlw	25
   706  02BE  3417               	retlw	23
   707  02BF  3419               	retlw	25
   708  02C0  3418               	retlw	24
   709  02C1  3419               	retlw	25
   710  02C2  341C               	retlw	28
   711  02C3  341A               	retlw	26
   712  02C4  341A               	retlw	26
   713  02C5  341A               	retlw	26
   714  02C6  3463               	retlw	99
   715  02C7  3463               	retlw	99
   716  02C8  3463               	retlw	99
   717  02C9  3463               	retlw	99
   718  02CA  3463               	retlw	99
   719  02CB  3463               	retlw	99
   720  02CC  3463               	retlw	99
   721  02CD  3463               	retlw	99
   722  02CE  3463               	retlw	99
   723  02CF  3463               	retlw	99
   724  02D0  3463               	retlw	99
   725  02D1  3463               	retlw	99
   726  02D2  341D               	retlw	29
   727  02D3  341B               	retlw	27
   728  02D4  341B               	retlw	27
   729  02D5  341B               	retlw	27
   730  02D6  3463               	retlw	99
   731  02D7  3463               	retlw	99
   732  02D8  3463               	retlw	99
   733  02D9  3463               	retlw	99
   734  02DA  3463               	retlw	99
   735  02DB  3463               	retlw	99
   736  02DC  3463               	retlw	99
   737  02DD  3463               	retlw	99
   738  02DE  3463               	retlw	99
   739  02DF  3463               	retlw	99
   740  02E0  3463               	retlw	99
   741  02E1  3463               	retlw	99
   742  02E2  341A               	retlw	26
   743  02E3  341A               	retlw	26
   744  02E4  341A               	retlw	26
   745  02E5  341A               	retlw	26
   746  02E6  3463               	retlw	99
   747  02E7  3463               	retlw	99
   748  02E8  3463               	retlw	99
   749  02E9  3463               	retlw	99
   750  02EA  3463               	retlw	99
   751  02EB  3463               	retlw	99
   752  02EC  3463               	retlw	99
   753  02ED  3463               	retlw	99
   754  02EE  3463               	retlw	99
   755  02EF  3463               	retlw	99
   756  02F0  3463               	retlw	99
   757  02F1  3463               	retlw	99
   758  02F2  341B               	retlw	27
   759  02F3  341B               	retlw	27
   760  02F4  341B               	retlw	27
   761  02F5  341B               	retlw	27
   762  02F6  3463               	retlw	99
   763  02F7  3463               	retlw	99
   764  02F8  3463               	retlw	99
   765  02F9  3463               	retlw	99
   766  02FA  3463               	retlw	99
   767  02FB  3463               	retlw	99
   768  02FC  3463               	retlw	99
   769  02FD  3463               	retlw	99
   770  02FE  3463               	retlw	99
   771  02FF  3463               	retlw	99
   772  0300  3463               	retlw	99
   773  0301  3463               	retlw	99
   774  0302                     __end_of_ROM_COMBO_Patterns:	
   775  0302                     _ROM_Sub_Patterns:	
   776  0302  3400               	retlw	0
   777  0303  3400               	retlw	0
   778  0304  3400               	retlw	0
   779  0305  3400               	retlw	0
   780  0306  3400               	retlw	0
   781  0307  3400               	retlw	0
   782  0308  3400               	retlw	0
   783  0309  3403               	retlw	3
   784  030A  3403               	retlw	3
   785  030B  3403               	retlw	3
   786  030C  3403               	retlw	3
   787  030D  3403               	retlw	3
   788  030E  3403               	retlw	3
   789  030F  3403               	retlw	3
   790  0310  3400               	retlw	0
   791  0311  3400               	retlw	0
   792  0312  3400               	retlw	0
   793  0313  3400               	retlw	0
   794  0314  3400               	retlw	0
   795  0315  3400               	retlw	0
   796  0316  3400               	retlw	0
   797  0317  3403               	retlw	3
   798  0318  3403               	retlw	3
   799  0319  3403               	retlw	3
   800  031A  3403               	retlw	3
   801  031B  3403               	retlw	3
   802  031C  3403               	retlw	3
   803  031D  3403               	retlw	3
   804  031E  3403               	retlw	3
   805  031F  3400               	retlw	0
   806  0320  3403               	retlw	3
   807  0321  3400               	retlw	0
   808  0322  3403               	retlw	3
   809  0323  3400               	retlw	0
   810  0324  3403               	retlw	3
   811  0325  3403               	retlw	3
   812  0326  3400               	retlw	0
   813  0327  3403               	retlw	3
   814  0328  3400               	retlw	0
   815  0329  3403               	retlw	3
   816  032A  3400               	retlw	0
   817  032B  3403               	retlw	3
   818  032C  3403               	retlw	3
   819  032D  3400               	retlw	0
   820  032E  3403               	retlw	3
   821  032F  3400               	retlw	0
   822  0330  3403               	retlw	3
   823  0331  3400               	retlw	0
   824  0332  3403               	retlw	3
   825  0333  3403               	retlw	3
   826  0334  3400               	retlw	0
   827  0335  3403               	retlw	3
   828  0336  3400               	retlw	0
   829  0337  3403               	retlw	3
   830  0338  3400               	retlw	0
   831  0339  3403               	retlw	3
   832  033A  3401               	retlw	1
   833  033B  3400               	retlw	0
   834  033C  3400               	retlw	0
   835  033D  3400               	retlw	0
   836  033E  3400               	retlw	0
   837  033F  3400               	retlw	0
   838  0340  3400               	retlw	0
   839  0341  3402               	retlw	2
   840  0342  3400               	retlw	0
   841  0343  3400               	retlw	0
   842  0344  3400               	retlw	0
   843  0345  3400               	retlw	0
   844  0346  3400               	retlw	0
   845  0347  3400               	retlw	0
   846  0348  3400               	retlw	0
   847  0349  3400               	retlw	0
   848  034A  3400               	retlw	0
   849  034B  3400               	retlw	0
   850  034C  3400               	retlw	0
   851  034D  3400               	retlw	0
   852  034E  3400               	retlw	0
   853  034F  3401               	retlw	1
   854  0350  3400               	retlw	0
   855  0351  3400               	retlw	0
   856  0352  3400               	retlw	0
   857  0353  3400               	retlw	0
   858  0354  3400               	retlw	0
   859  0355  3400               	retlw	0
   860  0356  3402               	retlw	2
   861  0357  3400               	retlw	0
   862  0358  3400               	retlw	0
   863  0359  3400               	retlw	0
   864  035A  3400               	retlw	0
   865  035B  3400               	retlw	0
   866  035C  3400               	retlw	0
   867  035D  3400               	retlw	0
   868  035E  3400               	retlw	0
   869  035F  3400               	retlw	0
   870  0360  3400               	retlw	0
   871  0361  3400               	retlw	0
   872  0362  3400               	retlw	0
   873  0363  3400               	retlw	0
   874  0364  3401               	retlw	1
   875  0365  3400               	retlw	0
   876  0366  3401               	retlw	1
   877  0367  3400               	retlw	0
   878  0368  3401               	retlw	1
   879  0369  3400               	retlw	0
   880  036A  3401               	retlw	1
   881  036B  3402               	retlw	2
   882  036C  3400               	retlw	0
   883  036D  3402               	retlw	2
   884  036E  3400               	retlw	0
   885  036F  3402               	retlw	2
   886  0370  3400               	retlw	0
   887  0371  3402               	retlw	2
   888  0372  3400               	retlw	0
   889  0373  3400               	retlw	0
   890  0374  3400               	retlw	0
   891  0375  3400               	retlw	0
   892  0376  3400               	retlw	0
   893  0377  3400               	retlw	0
   894  0378  3400               	retlw	0
   895  0379  3401               	retlw	1
   896  037A  3400               	retlw	0
   897  037B  3401               	retlw	1
   898  037C  3400               	retlw	0
   899  037D  3401               	retlw	1
   900  037E  3400               	retlw	0
   901  037F  3401               	retlw	1
   902  0380  3402               	retlw	2
   903  0381  3400               	retlw	0
   904  0382  3402               	retlw	2
   905  0383  3400               	retlw	0
   906  0384  3402               	retlw	2
   907  0385  3400               	retlw	0
   908  0386  3402               	retlw	2
   909  0387  3400               	retlw	0
   910  0388  3400               	retlw	0
   911  0389  3400               	retlw	0
   912  038A  3400               	retlw	0
   913  038B  3400               	retlw	0
   914  038C  3400               	retlw	0
   915  038D  3400               	retlw	0
   916  038E  3401               	retlw	1
   917  038F  3400               	retlw	0
   918  0390  3401               	retlw	1
   919  0391  3400               	retlw	0
   920  0392  3401               	retlw	1
   921  0393  3400               	retlw	0
   922  0394  3401               	retlw	1
   923  0395  3402               	retlw	2
   924  0396  3400               	retlw	0
   925  0397  3402               	retlw	2
   926  0398  3400               	retlw	0
   927  0399  3402               	retlw	2
   928  039A  3400               	retlw	0
   929  039B  3402               	retlw	2
   930  039C  3400               	retlw	0
   931  039D  3400               	retlw	0
   932  039E  3400               	retlw	0
   933  039F  3400               	retlw	0
   934  03A0  3400               	retlw	0
   935  03A1  3400               	retlw	0
   936  03A2  3400               	retlw	0
   937  03A3  3401               	retlw	1
   938  03A4  3400               	retlw	0
   939  03A5  3401               	retlw	1
   940  03A6  3400               	retlw	0
   941  03A7  3401               	retlw	1
   942  03A8  3400               	retlw	0
   943  03A9  3401               	retlw	1
   944  03AA  3402               	retlw	2
   945  03AB  3400               	retlw	0
   946  03AC  3402               	retlw	2
   947  03AD  3400               	retlw	0
   948  03AE  3402               	retlw	2
   949  03AF  3400               	retlw	0
   950  03B0  3402               	retlw	2
   951  03B1  3400               	retlw	0
   952  03B2  3400               	retlw	0
   953  03B3  3400               	retlw	0
   954  03B4  3400               	retlw	0
   955  03B5  3400               	retlw	0
   956  03B6  3400               	retlw	0
   957  03B7  3400               	retlw	0
   958  03B8  3401               	retlw	1
   959  03B9  3401               	retlw	1
   960  03BA  3401               	retlw	1
   961  03BB  3401               	retlw	1
   962  03BC  3401               	retlw	1
   963  03BD  3401               	retlw	1
   964  03BE  3401               	retlw	1
   965  03BF  3402               	retlw	2
   966  03C0  3402               	retlw	2
   967  03C1  3402               	retlw	2
   968  03C2  3402               	retlw	2
   969  03C3  3402               	retlw	2
   970  03C4  3402               	retlw	2
   971  03C5  3402               	retlw	2
   972  03C6  3401               	retlw	1
   973  03C7  3400               	retlw	0
   974  03C8  3401               	retlw	1
   975  03C9  3400               	retlw	0
   976  03CA  3401               	retlw	1
   977  03CB  3400               	retlw	0
   978  03CC  3401               	retlw	1
   979  03CD  3402               	retlw	2
   980  03CE  3400               	retlw	0
   981  03CF  3402               	retlw	2
   982  03D0  3400               	retlw	0
   983  03D1  3402               	retlw	2
   984  03D2  3400               	retlw	0
   985  03D3  3402               	retlw	2
   986  03D4                     __end_of_ROM_Sub_Patterns:	
   987  03D4                     _ROM_Sub_Patterns_Time:	
   988  03D4  340A               	retlw	10
   989  03D5  340A               	retlw	10
   990  03D6  3400               	retlw	0
   991  03D7  3400               	retlw	0
   992  03D8  3400               	retlw	0
   993  03D9  3400               	retlw	0
   994  03DA  3400               	retlw	0
   995  03DB  340A               	retlw	10
   996  03DC  340A               	retlw	10
   997  03DD  3400               	retlw	0
   998  03DE  3400               	retlw	0
   999  03DF  3400               	retlw	0
  1000  03E0  3400               	retlw	0
  1001  03E1  3400               	retlw	0
  1002  03E2  340F               	retlw	15
  1003  03E3  340F               	retlw	15
  1004  03E4  3400               	retlw	0
  1005  03E5  3400               	retlw	0
  1006  03E6  3400               	retlw	0
  1007  03E7  3400               	retlw	0
  1008  03E8  3400               	retlw	0
  1009  03E9  340F               	retlw	15
  1010  03EA  340F               	retlw	15
  1011  03EB  3400               	retlw	0
  1012  03EC  3400               	retlw	0
  1013  03ED  3400               	retlw	0
  1014  03EE  3400               	retlw	0
  1015  03EF  3400               	retlw	0
  1016  03F0  3408               	retlw	8
  1017  03F1  3408               	retlw	8
  1018  03F2  3408               	retlw	8
  1019  03F3  3400               	retlw	0
  1020  03F4  3400               	retlw	0
  1021  03F5  3400               	retlw	0
  1022  03F6  3400               	retlw	0
  1023  03F7  3408               	retlw	8
  1024  03F8  3408               	retlw	8
  1025  03F9  3408               	retlw	8
  1026  03FA  3408               	retlw	8
  1027  03FB  3408               	retlw	8
  1028  03FC  3400               	retlw	0
  1029  03FD  3400               	retlw	0
  1030  03FE  3406               	retlw	6
  1031  03FF  3406               	retlw	6
  1032  0400  3406               	retlw	6
  1033  0401  3400               	retlw	0
  1034  0402  3400               	retlw	0
  1035  0403  3400               	retlw	0
  1036  0404  3400               	retlw	0
  1037  0405  3406               	retlw	6
  1038  0406  3406               	retlw	6
  1039  0407  3406               	retlw	6
  1040  0408  3406               	retlw	6
  1041  0409  3406               	retlw	6
  1042  040A  3400               	retlw	0
  1043  040B  3400               	retlw	0
  1044  040C  3423               	retlw	35
  1045  040D  3406               	retlw	6
  1046  040E  3400               	retlw	0
  1047  040F  3400               	retlw	0
  1048  0410  3400               	retlw	0
  1049  0411  3400               	retlw	0
  1050  0412  3400               	retlw	0
  1051  0413  3423               	retlw	35
  1052  0414  3406               	retlw	6
  1053  0415  3400               	retlw	0
  1054  0416  3400               	retlw	0
  1055  0417  3400               	retlw	0
  1056  0418  3400               	retlw	0
  1057  0419  3400               	retlw	0
  1058  041A  3423               	retlw	35
  1059  041B  3406               	retlw	6
  1060  041C  3400               	retlw	0
  1061  041D  3400               	retlw	0
  1062  041E  3400               	retlw	0
  1063  041F  3400               	retlw	0
  1064  0420  3400               	retlw	0
  1065  0421  340F               	retlw	15
  1066  0422  3406               	retlw	6
  1067  0423  3400               	retlw	0
  1068  0424  3400               	retlw	0
  1069  0425  3400               	retlw	0
  1070  0426  3400               	retlw	0
  1071  0427  3400               	retlw	0
  1072  0428  340F               	retlw	15
  1073  0429  3406               	retlw	6
  1074  042A  3400               	retlw	0
  1075  042B  3400               	retlw	0
  1076  042C  3400               	retlw	0
  1077  042D  3400               	retlw	0
  1078  042E  3400               	retlw	0
  1079  042F  340F               	retlw	15
  1080  0430  3406               	retlw	6
  1081  0431  3400               	retlw	0
  1082  0432  3400               	retlw	0
  1083  0433  3400               	retlw	0
  1084  0434  3400               	retlw	0
  1085  0435  3400               	retlw	0
  1086  0436  3408               	retlw	8
  1087  0437  3408               	retlw	8
  1088  0438  3408               	retlw	8
  1089  0439  3423               	retlw	35
  1090  043A  3400               	retlw	0
  1091  043B  3400               	retlw	0
  1092  043C  3400               	retlw	0
  1093  043D  3408               	retlw	8
  1094  043E  3408               	retlw	8
  1095  043F  3408               	retlw	8
  1096  0440  3423               	retlw	35
  1097  0441  3400               	retlw	0
  1098  0442  3400               	retlw	0
  1099  0443  3400               	retlw	0
  1100  0444  3408               	retlw	8
  1101  0445  3408               	retlw	8
  1102  0446  3408               	retlw	8
  1103  0447  3423               	retlw	35
  1104  0448  3400               	retlw	0
  1105  0449  3400               	retlw	0
  1106  044A  3400               	retlw	0
  1107  044B  3406               	retlw	6
  1108  044C  3406               	retlw	6
  1109  044D  3406               	retlw	6
  1110  044E  340F               	retlw	15
  1111  044F  3400               	retlw	0
  1112  0450  3400               	retlw	0
  1113  0451  3400               	retlw	0
  1114  0452  3406               	retlw	6
  1115  0453  3406               	retlw	6
  1116  0454  3406               	retlw	6
  1117  0455  340F               	retlw	15
  1118  0456  3400               	retlw	0
  1119  0457  3400               	retlw	0
  1120  0458  3400               	retlw	0
  1121  0459  3406               	retlw	6
  1122  045A  3406               	retlw	6
  1123  045B  3406               	retlw	6
  1124  045C  340F               	retlw	15
  1125  045D  3400               	retlw	0
  1126  045E  3400               	retlw	0
  1127  045F  3400               	retlw	0
  1128  0460  3408               	retlw	8
  1129  0461  3408               	retlw	8
  1130  0462  3408               	retlw	8
  1131  0463  3408               	retlw	8
  1132  0464  3408               	retlw	8
  1133  0465  3423               	retlw	35
  1134  0466  3400               	retlw	0
  1135  0467  3408               	retlw	8
  1136  0468  3408               	retlw	8
  1137  0469  3408               	retlw	8
  1138  046A  3408               	retlw	8
  1139  046B  3408               	retlw	8
  1140  046C  3423               	retlw	35
  1141  046D  3400               	retlw	0
  1142  046E  3408               	retlw	8
  1143  046F  3408               	retlw	8
  1144  0470  3408               	retlw	8
  1145  0471  3408               	retlw	8
  1146  0472  3408               	retlw	8
  1147  0473  3423               	retlw	35
  1148  0474  3400               	retlw	0
  1149  0475  3406               	retlw	6
  1150  0476  3406               	retlw	6
  1151  0477  3406               	retlw	6
  1152  0478  3406               	retlw	6
  1153  0479  3406               	retlw	6
  1154  047A  340F               	retlw	15
  1155  047B  3400               	retlw	0
  1156  047C  3406               	retlw	6
  1157  047D  3406               	retlw	6
  1158  047E  3406               	retlw	6
  1159  047F  3406               	retlw	6
  1160  0480  3406               	retlw	6
  1161  0481  340F               	retlw	15
  1162  0482  3400               	retlw	0
  1163  0483  3406               	retlw	6
  1164  0484  3406               	retlw	6
  1165  0485  3406               	retlw	6
  1166  0486  3406               	retlw	6
  1167  0487  3406               	retlw	6
  1168  0488  340F               	retlw	15
  1169  0489  3400               	retlw	0
  1170  048A  340A               	retlw	10
  1171  048B  340A               	retlw	10
  1172  048C  3400               	retlw	0
  1173  048D  3400               	retlw	0
  1174  048E  3400               	retlw	0
  1175  048F  3400               	retlw	0
  1176  0490  3400               	retlw	0
  1177  0491  340A               	retlw	10
  1178  0492  340A               	retlw	10
  1179  0493  3400               	retlw	0
  1180  0494  3400               	retlw	0
  1181  0495  3400               	retlw	0
  1182  0496  3400               	retlw	0
  1183  0497  3400               	retlw	0
  1184  0498  3406               	retlw	6
  1185  0499  3406               	retlw	6
  1186  049A  3406               	retlw	6
  1187  049B  3406               	retlw	6
  1188  049C  3406               	retlw	6
  1189  049D  3406               	retlw	6
  1190  049E  3400               	retlw	0
  1191  049F  3406               	retlw	6
  1192  04A0  3406               	retlw	6
  1193  04A1  3406               	retlw	6
  1194  04A2  3406               	retlw	6
  1195  04A3  3406               	retlw	6
  1196  04A4  3406               	retlw	6
  1197  04A5  3400               	retlw	0
  1198  04A6                     __end_of_ROM_Sub_Patterns_Time:	
  1199  0019                     _CMCON0	set	25
  1200  0005                     _GPIO	set	5
  1201  0005                     _GPIObits	set	5
  1202  000B                     _INTCON	set	11
  1203  000B                     _INTCONbits	set	11
  1204  0001                     _TMR0	set	1
  1205  0018                     _WDTCON	set	24
  1206  0018                     _CARRY	set	24
  1207  005F                     _GIE	set	95
  1208  009F                     _ANSEL	set	159
  1209  009B                     _EEADR	set	155
  1210  009C                     _EECON1	set	156
  1211  009D                     _EECON2	set	157
  1212  009A                     _EEDATA	set	154
  1213  0081                     _OPTION_REGbits	set	129
  1214  008F                     _OSCCON	set	143
  1215  008F                     _OSCCONbits	set	143
  1216  0085                     _TRISIO	set	133
  1217  0085                     _TRISIObits	set	133
  1218  0095                     _WPU	set	149
  1219  04E0                     _RD	set	1248
  1220  04E1                     _WR	set	1249
  1221  04E2                     _WREN	set	1250
  1222                           
  1223                           ; #config settings
  1224  0000                     
  1225                           	psect	cinit
  1226  0010                     start_initialization:	
  1227  0010                     __initialization:	
  1228                           
  1229                           ; Clear objects allocated to COMMON
  1230  0010  3076               	movlw	low __pbssCOMMON
  1231  0011  0084               	movwf	4
  1232  0012  307A               	movlw	low (__pbssCOMMON+4)
  1233  0013  27F8               	fcall	clear_ram0
  1234  0014  3020               	movlw	low __pbssBANK0
  1235                           
  1236                           ; Clear objects allocated to BANK0
  1237  0015  1383               	bcf	3,7	;select IRP bank0
  1238  0016  0084               	movwf	4
  1239  0017  3046               	movlw	low (__pbssBANK0+38)
  1240  0018  27F8               	fcall	clear_ram0
  1241  0019                     end_of_initialization:	
  1242                           ;End of C runtime variable initialization code
  1243                           
  1244  0019                     __end_of__initialization:	
  1245  0019  0183               	clrf	3
  1246  001A  2DE3               	ljmp	_main	;jump to C main() function
  1247                           
  1248                           	psect	bssEEDATA
  1249  0000                     __pbssEEDATA:	
  1250  0000                     _EEprom_InPhase:	
  1251  0000  0000               	db	0
  1252  0001  0000               	db	0
  1253  0002                     _EEprom_mode:	
  1254  0002  0000               	db	0
  1255  0003  0000               	db	0
  1256  0004                     _EEprom_Written_Flag:	
  1257  0004  0000               	db	0
  1258                           
  1259                           	psect	bssCOMMON
  1260  0076                     __pbssCOMMON:	
  1261  0076                     _GLOBAL_SYNC_PULSE_Counter:	
  1262  0076                     	ds	1
  1263  0077                     _GLOBAL_combo_patterns_column_index:	
  1264  0077                     	ds	1
  1265  0078                     _GLOBAL_combo_patterns_index:	
  1266  0078                     	ds	1
  1267  0079                     _GLOBAL_sub_patterns_column_index:	
  1268  0079                     	ds	1
  1269                           
  1270                           	psect	bssBANK0
  1271  0020                     __pbssBANK0:	
  1272  0020                     _GLOBAL_Mode_copy:	
  1273  0020                     	ds	2
  1274  0022                     _bGLOBAL_InPhase_copy:	
  1275  0022                     	ds	2
  1276  0024                     _GLOBAL_CHANNELS_EN:	
  1277  0024                     	ds	1
  1278  0025                     _GLOBAL_CHANNELS_EN_copy:	
  1279  0025                     	ds	1
  1280  0026                     _GLOBAL_Dummy_Counter:	
  1281  0026                     	ds	1
  1282  0027                     _GLOBAL_Dummy_Counter2:	
  1283  0027                     	ds	1
  1284  0028                     _GLOBAL_MODE1_LOW_counter:	
  1285  0028                     	ds	1
  1286  0029                     _GLOBAL_MODE1_counter:	
  1287  0029                     	ds	1
  1288  002A                     _GLOBAL_MODE2_LOW_counter:	
  1289  002A                     	ds	1
  1290  002B                     _GLOBAL_MODE2_counter:	
  1291  002B                     	ds	1
  1292  002C                     _GLOBAL_SYNC_Line_LOW_counter:	
  1293  002C                     	ds	1
  1294  002D                     _GLOBAL_SYNC_Line_counter:	
  1295  002D                     	ds	1
  1296  002E                     _GLOBAL_Selected_Mode_Number:	
  1297  002E                     	ds	1
  1298  002F                     _GLOBAL_Selected_Mode_Type:	
  1299  002F                     	ds	1
  1300  0030                     _GLOBAL_Selected_Mode_Type_copy:	
  1301  0030                     	ds	1
  1302  0031                     _GLOBAL_combo_patterns_counter:	
  1303  0031                     	ds	1
  1304  0032                     _GLOBAL_combo_patterns_index_copy:	
  1305  0032                     	ds	1
  1306  0033                     _GLOBAL_sub_patterns_index:	
  1307  0033                     	ds	1
  1308  0034                     _GLOBAL_sub_patterns_index_copy:	
  1309  0034                     	ds	1
  1310  0035                     _GLOBAL_sub_patterns_timer:	
  1311  0035                     	ds	1
  1312  0036                     _OUTPUT_BUFFER:	
  1313  0036                     	ds	1
  1314  0037                     _OUTPUT_BUFFER_COPY:	
  1315  0037                     	ds	1
  1316  0038                     _bGLOBAL_CHANGING_PATTERN:	
  1317  0038                     	ds	1
  1318  0039                     _bGLOBAL_CHANGING_PATTERN_Enforce:	
  1319  0039                     	ds	1
  1320  003A                     _bGLOBAL_DISABLE_SYNC_Line_PRESSED:	
  1321  003A                     	ds	1
  1322  003B                     _bGLOBAL_ENABLE_LEDS:	
  1323  003B                     	ds	1
  1324  003C                     _bGLOBAL_END_OF_CYCLE_COND1:	
  1325  003C                     	ds	1
  1326  003D                     _bGLOBAL_END_OF_CYCLE_COND2:	
  1327  003D                     	ds	1
  1328  003E                     _bGLOBAL_IS_PROGRAMMING:	
  1329  003E                     	ds	1
  1330  003F                     _bGLOBAL_InPhase:	
  1331  003F                     	ds	1
  1332  0040                     _bGLOBAL_MODE1_PRESSED:	
  1333  0040                     	ds	1
  1334  0041                     _bGLOBAL_MODE2_PRESSED:	
  1335  0041                     	ds	1
  1336  0042                     _bGLOBAL_OUTPUT_BUFFER_CHANGED:	
  1337  0042                     	ds	1
  1338  0043                     _bGLOBAL_STEADY_ON:	
  1339  0043                     	ds	1
  1340  0044                     _bGLOBAL_SYNC_Line_PRESSED:	
  1341  0044                     	ds	1
  1342  0045                     _bGLOBAL_SYNC_SENT:	
  1343  0045                     	ds	1
  1344                           
  1345                           	psect	clrtext
  1346  07F8                     clear_ram0:	
  1347                           ;	Called with FSR containing the base address, and
  1348                           ;	W with the last address+1
  1349                           
  1350  07F8  0064               	clrwdt	;clear the watchdog before getting into this loop
  1351  07F9                     clrloop0:	
  1352  07F9  0180               	clrf	0	;clear RAM location pointed to by FSR
  1353  07FA  0A84               	incf	4,f	;increment pointer
  1354  07FB  0604               	xorwf	4,w	;XOR with final address
  1355  07FC  1903               	btfsc	3,2	;have we reached the end yet?
  1356  07FD  3400               	retlw	0	;all done for this memory range, return
  1357  07FE  0604               	xorwf	4,w	;XOR again to restore value
  1358  07FF  2FF9               	goto	clrloop0	;do the next byte
  1359                           
  1360                           	psect	cstackCOMMON
  1361  0070                     __pcstackCOMMON:	
  1362  0070                     ?_SetOUTPUT:	
  1363  0070                     ?_Read_Mode_Input:	
  1364                           ; 1 bytes @ 0x0
  1365                           
  1366  0070                     ??_Read_Mode_Input:	
  1367                           ; 1 bytes @ 0x0
  1368                           
  1369  0070                     ?_ReWriteEEPROM:	
  1370                           ; 1 bytes @ 0x0
  1371                           
  1372  0070                     ?_Update_ComboPattern_Index:	
  1373                           ; 1 bytes @ 0x0
  1374                           
  1375  0070                     ?_ConfigureOscillator:	
  1376                           ; 1 bytes @ 0x0
  1377                           
  1378  0070                     ?_InitApp:	
  1379                           ; 1 bytes @ 0x0
  1380                           
  1381  0070                     ?_isr:	
  1382                           ; 1 bytes @ 0x0
  1383                           
  1384  0070                     ?_WaitForSYNC_PU:	
  1385                           ; 1 bytes @ 0x0
  1386                           
  1387  0070                     ?_WriteEEPROMDefaults:	
  1388                           ; 1 bytes @ 0x0
  1389                           
  1390  0070                     ?_INC_EEPROM_MODE:	
  1391                           ; 1 bytes @ 0x0
  1392                           
  1393  0070                     ?_Update_Input_Mode_Type:	
  1394                           ; 1 bytes @ 0x0
  1395                           
  1396  0070                     ?_Initial_Start:	
  1397                           ; 1 bytes @ 0x0
  1398                           
  1399  0070                     ?_main:	
  1400                           ; 1 bytes @ 0x0
  1401                           
  1402  0070                     ?___eetoc:	
  1403                           ; 1 bytes @ 0x0
  1404                           
  1405  0070                     ?___bmul:	
  1406                           ; 1 bytes @ 0x0
  1407                           
  1408  0070                     ?i1_SetOUTPUT:	
  1409                           ; 1 bytes @ 0x0
  1410                           
  1411  0070                     ??i1_SetOUTPUT:	
  1412                           ; 1 bytes @ 0x0
  1413                           
  1414  0070                     ___bmul@multiplicand:	
  1415                           ; 1 bytes @ 0x0
  1416                           
  1417                           
  1418                           ; 1 bytes @ 0x0
  1419  0070                     	ds	1
  1420  0071                     ??___bmul:	
  1421  0071                     ___bmul@product:	
  1422                           ; 1 bytes @ 0x1
  1423                           
  1424  0071                     i1SetOUTPUT@temporaryGPIO:	
  1425                           ; 1 bytes @ 0x1
  1426                           
  1427                           
  1428                           ; 1 bytes @ 0x1
  1429  0071                     	ds	1
  1430  0072                     ___bmul@multiplier:	
  1431                           
  1432                           ; 1 bytes @ 0x2
  1433  0072                     	ds	1
  1434  0073                     isr@temp_data1:	
  1435                           
  1436                           ; 1 bytes @ 0x3
  1437  0073                     	ds	1
  1438  0074                     ??_SetOUTPUT:	
  1439  0074                     ??_Update_ComboPattern_Index:	
  1440                           ; 1 bytes @ 0x4
  1441                           
  1442  0074                     ??_ConfigureOscillator:	
  1443                           ; 1 bytes @ 0x4
  1444                           
  1445  0074                     ??_WaitForSYNC_PU:	
  1446                           ; 1 bytes @ 0x4
  1447                           
  1448  0074                     ??_Update_Input_Mode_Type:	
  1449                           ; 1 bytes @ 0x4
  1450                           
  1451  0074                     ?_eecpymem:	
  1452                           ; 1 bytes @ 0x4
  1453                           
  1454  0074                     ?_memcpyee:	
  1455                           ; 1 bytes @ 0x4
  1456                           
  1457  0074                     WaitForSYNC_PU@temp001:	
  1458                           ; 1 bytes @ 0x4
  1459                           
  1460  0074                     eecpymem@from:	
  1461                           ; 1 bytes @ 0x4
  1462                           
  1463  0074                     memcpyee@from:	
  1464                           ; 1 bytes @ 0x4
  1465                           
  1466                           
  1467                           ; 1 bytes @ 0x4
  1468  0074                     	ds	1
  1469  0075                     ??_InitApp:	
  1470  0075                     SetOUTPUT@temporaryGPIO:	
  1471                           ; 1 bytes @ 0x5
  1472                           
  1473  0075                     eecpymem@size:	
  1474                           ; 1 bytes @ 0x5
  1475                           
  1476  0075                     memcpyee@size:	
  1477                           ; 1 bytes @ 0x5
  1478                           
  1479                           
  1480                           ; 1 bytes @ 0x5
  1481  0075                     	ds	1
  1482  0076                     ??_ReWriteEEPROM:	
  1483  0076                     ??_WriteEEPROMDefaults:	
  1484                           ; 1 bytes @ 0x6
  1485                           
  1486  0076                     ??_INC_EEPROM_MODE:	
  1487                           ; 1 bytes @ 0x6
  1488                           
  1489  0076                     ??_main:	
  1490                           ; 1 bytes @ 0x6
  1491                           
  1492  0076                     ??_eecpymem:	
  1493                           ; 1 bytes @ 0x6
  1494                           
  1495  0076                     ??_memcpyee:	
  1496                           ; 1 bytes @ 0x6
  1497                           
  1498  0076                     ??___eetoc:	
  1499                           ; 1 bytes @ 0x6
  1500                           
  1501  0076                     ??___ctoee:	
  1502                           ; 1 bytes @ 0x6
  1503                           
  1504                           
  1505                           	psect	cstackBANK0
  1506  0046                     __pcstackBANK0:	
  1507                           ; 1 bytes @ 0x6
  1508                           
  1509  0046                     ??_isr:	
  1510                           
  1511                           ; 1 bytes @ 0x0
  1512  0046                     	ds	12
  1513  0052                     eecpymem@cp:	
  1514  0052                     memcpyee@ptr:	
  1515                           ; 1 bytes @ 0xC
  1516                           
  1517                           
  1518                           ; 1 bytes @ 0xC
  1519  0052                     	ds	1
  1520  0053                     eecpymem@to:	
  1521  0053                     memcpyee@to:	
  1522                           ; 1 bytes @ 0xD
  1523                           
  1524                           
  1525                           ; 1 bytes @ 0xD
  1526  0053                     	ds	1
  1527  0054                     ?___ctoee:	
  1528  0054                     ___eetoc@addr:	
  1529                           ; 1 bytes @ 0xE
  1530                           
  1531  0054                     ___ctoee@data:	
  1532                           ; 1 bytes @ 0xE
  1533                           
  1534                           
  1535                           ; 1 bytes @ 0xE
  1536  0054                     	ds	1
  1537  0055                     ___eetoc@data:	
  1538  0055                     ___ctoee@addr:	
  1539                           ; 1 bytes @ 0xF
  1540                           
  1541                           
  1542                           ; 1 bytes @ 0xF
  1543  0055                     	ds	1
  1544  0056                     ReWriteEEPROM@i:	
  1545                           
  1546                           ; 1 bytes @ 0x10
  1547  0056                     	ds	1
  1548  0057                     ??_Initial_Start:	
  1549  0057                     INC_EEPROM_MODE@Temp_Mode_Data:	
  1550                           ; 1 bytes @ 0x11
  1551                           
  1552                           
  1553                           ; 1 bytes @ 0x11
  1554  0057                     	ds	1
  1555  0058                     Initial_Start@read_data:	
  1556                           
  1557                           ; 1 bytes @ 0x12
  1558  0058                     	ds	1
  1559  0059                     Initial_Start@i:	
  1560                           
  1561                           ; 1 bytes @ 0x13
  1562  0059                     	ds	1
  1563  005A                     main@tempvar1:	
  1564                           
  1565                           ; 1 bytes @ 0x14
  1566  005A                     	ds	1
  1567                           
  1568                           	psect	maintext
  1569  05E3                     __pmaintext:	
  1570 ;;
  1571 ;;Main: autosize = 0, tempsize = 0, incstack = 0, save=0
  1572 ;;
  1573 ;; *************** function _main *****************
  1574 ;; Defined at:
  1575 ;;		line 599 in file "main.c"
  1576 ;; Parameters:    Size  Location     Type
  1577 ;;		None
  1578 ;; Auto vars:     Size  Location     Type
  1579 ;;  tempvar1        1   20[BANK0 ] unsigned char 
  1580 ;; Return value:  Size  Location     Type
  1581 ;;                  1    wreg      void 
  1582 ;; Registers used:
  1583 ;;		wreg, fsr0l, fsr0h, status,2, status,0, pclath, cstack
  1584 ;; Tracked objects:
  1585 ;;		On entry : B00/0
  1586 ;;		On exit  : 100/0
  1587 ;;		Unchanged: 0/0
  1588 ;; Data sizes:     COMMON   BANK0   BANK1
  1589 ;;      Params:         0       0       0
  1590 ;;      Locals:         0       1       0
  1591 ;;      Temps:          0       0       0
  1592 ;;      Totals:         0       1       0
  1593 ;;Total ram usage:        1 bytes
  1594 ;; Hardware stack levels required when called:    7
  1595 ;; This function calls:
  1596 ;;		_ConfigureOscillator
  1597 ;;		_INC_EEPROM_MODE
  1598 ;;		_InitApp
  1599 ;;		_Initial_Start
  1600 ;;		_ReWriteEEPROM
  1601 ;;		_SetOUTPUT
  1602 ;;		_Update_Input_Mode_Type
  1603 ;; This function is called by:
  1604 ;;		Startup code after reset
  1605 ;; This function uses a non-reentrant model
  1606 ;;
  1607                           
  1608                           
  1609                           ;psect for function _main
  1610  05E3                     _main:	
  1611                           
  1612                           ;main.c: 601: unsigned char tempvar1;
  1613                           ;main.c: 603: ConfigureOscillator();
  1614                           
  1615                           ;incstack = 0
  1616                           ; Regs used in _main: [wreg-fsr0h+status,2+status,0+pclath+cstack]
  1617  05E3  2074               	fcall	_ConfigureOscillator
  1618                           
  1619                           ;main.c: 605: InitApp();
  1620  05E4  2764               	fcall	_InitApp
  1621                           
  1622                           ;main.c: 606: Initial_Start();
  1623  05E5  273D               	fcall	_Initial_Start
  1624                           
  1625                           ;main.c: 607: bGLOBAL_ENABLE_LEDS = 1;
  1626  05E6  3001               	movlw	1
  1627  05E7  00BB               	movwf	_bGLOBAL_ENABLE_LEDS	;volatile
  1628  05E8                     l2146:	
  1629                           
  1630                           ;main.c: 610: {
  1631                           ;main.c: 611: if (!bGLOBAL_IS_PROGRAMMING)
  1632  05E8  083E               	movf	_bGLOBAL_IS_PROGRAMMING,w	;volatile
  1633  05E9  1903               	btfsc	3,2
  1634  05EA  0064               	clrwdt	;# 
  1635                           
  1636                           ;main.c: 616: Update_Input_Mode_Type();
  1637  05EB  2037               	fcall	_Update_Input_Mode_Type
  1638                           
  1639                           ;main.c: 617: if ((GLOBAL_SYNC_Line_counter == 9) && (!bGLOBAL_SYNC_Line_PRESSED))
  1640  05EC  3009               	movlw	9
  1641  05ED  062D               	xorwf	_GLOBAL_SYNC_Line_counter,w	;volatile
  1642  05EE  1D03               	btfss	3,2
  1643  05EF  2DF7               	goto	l2162
  1644  05F0  0844               	movf	_bGLOBAL_SYNC_Line_PRESSED,w	;volatile
  1645  05F1  1D03               	btfss	3,2
  1646  05F2  2DF7               	goto	l2162
  1647                           
  1648                           ;main.c: 618: {
  1649                           ;main.c: 619: bGLOBAL_SYNC_Line_PRESSED = 1;
  1650  05F3  3001               	movlw	1
  1651  05F4  00C4               	movwf	_bGLOBAL_SYNC_Line_PRESSED	;volatile
  1652                           
  1653                           ;main.c: 620: bGLOBAL_ENABLE_LEDS = 0;
  1654  05F5  01BB               	clrf	_bGLOBAL_ENABLE_LEDS	;volatile
  1655                           
  1656                           ;main.c: 621: SetOUTPUT();
  1657  05F6  2714               	fcall	_SetOUTPUT
  1658  05F7                     l2162:	
  1659                           
  1660                           ;main.c: 622: }
  1661                           ;main.c: 623: if (bGLOBAL_SYNC_Line_PRESSED && (!bGLOBAL_IS_PROGRAMMING))
  1662  05F7  0844               	movf	_bGLOBAL_SYNC_Line_PRESSED,w	;volatile
  1663  05F8  1903               	btfsc	3,2
  1664  05F9  2E36               	goto	l2200
  1665  05FA  083E               	movf	_bGLOBAL_IS_PROGRAMMING,w	;volatile
  1666  05FB  1D03               	btfss	3,2
  1667  05FC  2E36               	goto	l2200
  1668                           
  1669                           ;main.c: 624: {
  1670                           ;main.c: 625: GLOBAL_Dummy_Counter = 0;
  1671  05FD  01A6               	clrf	_GLOBAL_Dummy_Counter	;volatile
  1672  05FE  2E03               	goto	l275
  1673  05FF                     l2168:	
  1674  05FF  30C7               	movlw	199
  1675  0600  0226               	subwf	_GLOBAL_Dummy_Counter,w	;volatile
  1676  0601  1803               	btfsc	3,0
  1677  0602  2E05               	goto	l2170
  1678  0603                     l275:	
  1679                           ;main.c: 626: while ((!(GPIObits.GP4)) && (GLOBAL_Dummy_Counter < 199)) {}
  1680                           
  1681  0603  1E05               	btfss	5,4	;volatile
  1682  0604  2DFF               	goto	l2168
  1683  0605                     l2170:	
  1684                           
  1685                           ;main.c: 627: tempvar1 = GLOBAL_Dummy_Counter;
  1686  0605  0826               	movf	_GLOBAL_Dummy_Counter,w	;volatile
  1687  0606  00DA               	movwf	main@tempvar1
  1688  0607  0064               	clrwdt	;# 
  1689                           
  1690                           ;main.c: 629: if (tempvar1 > 198)
  1691  0608  30C7               	movlw	199
  1692  0609  1283               	bcf	3,5	;RP0=0, select bank0
  1693  060A  025A               	subwf	main@tempvar1,w
  1694  060B  1C03               	skipc
  1695  060C  2E1F               	goto	l2184
  1696                           
  1697                           ;main.c: 630: {
  1698                           ;main.c: 631: bGLOBAL_CHANGING_PATTERN = 0;
  1699  060D  01B8               	clrf	_bGLOBAL_CHANGING_PATTERN	;volatile
  1700                           
  1701                           ;main.c: 632: bGLOBAL_InPhase = !bGLOBAL_InPhase;
  1702  060E  083F               	movf	_bGLOBAL_InPhase,w	;volatile
  1703  060F  1D03               	btfss	3,2
  1704  0610  2E13               	goto	u2480
  1705  0611  3001               	movlw	1
  1706  0612  2E14               	goto	u2490
  1707  0613                     u2480:	
  1708  0613  3000               	movlw	0
  1709  0614                     u2490:	
  1710  0614  00BF               	movwf	_bGLOBAL_InPhase	;volatile
  1711                           
  1712                           ;main.c: 633: bGLOBAL_InPhase_copy[GLOBAL_Selected_Mode_Type] = bGLOBAL_InPhase;
  1713  0615  082F               	movf	_GLOBAL_Selected_Mode_Type,w
  1714  0616  3E22               	addlw	(low (_bGLOBAL_InPhase_copy| 0))& (0+255)
  1715  0617  0084               	movwf	4
  1716  0618  083F               	movf	_bGLOBAL_InPhase,w	;volatile
  1717  0619  1383               	bcf	3,7	;select IRP bank0
  1718  061A  0080               	movwf	0
  1719                           
  1720                           ;main.c: 634: bGLOBAL_IS_PROGRAMMING = 1;
  1721  061B  3001               	movlw	1
  1722  061C  00BE               	movwf	_bGLOBAL_IS_PROGRAMMING	;volatile
  1723                           
  1724                           ;main.c: 635: SetOUTPUT();
  1725  061D  2714               	fcall	_SetOUTPUT
  1726                           
  1727                           ;main.c: 636: ReWriteEEPROM();
  1728  061E  27D5               	fcall	_ReWriteEEPROM
  1729  061F                     l2184:	
  1730                           
  1731                           ;main.c: 637: }
  1732                           ;main.c: 638: if (tempvar1 < 199)
  1733  061F  30C7               	movlw	199
  1734  0620  1283               	bcf	3,5	;RP0=0, select bank0
  1735  0621  025A               	subwf	main@tempvar1,w
  1736  0622  1803               	skipnc
  1737  0623  2E36               	goto	l2200
  1738                           
  1739                           ;main.c: 639: {
  1740                           ;main.c: 640: GLOBAL_Dummy_Counter = 0;
  1741  0624  01A6               	clrf	_GLOBAL_Dummy_Counter	;volatile
  1742  0625  2E2A               	goto	l282
  1743  0626                     l2188:	
  1744  0626  3002               	movlw	2
  1745  0627  0226               	subwf	_GLOBAL_Dummy_Counter,w	;volatile
  1746  0628  1803               	btfsc	3,0
  1747  0629  2E2C               	goto	l2190
  1748  062A                     l282:	
  1749                           ;main.c: 641: while ((GPIObits.GP4) && GLOBAL_Dummy_Counter < 2) {}
  1750                           
  1751  062A  1A05               	btfsc	5,4	;volatile
  1752  062B  2E26               	goto	l2188
  1753  062C                     l2190:	
  1754                           
  1755                           ;main.c: 642: if (GLOBAL_Dummy_Counter > 1)
  1756  062C  3002               	movlw	2
  1757  062D  0226               	subwf	_GLOBAL_Dummy_Counter,w	;volatile
  1758  062E  1C03               	skipc
  1759  062F  2E36               	goto	l2200
  1760                           
  1761                           ;main.c: 643: {
  1762                           ;main.c: 644: bGLOBAL_CHANGING_PATTERN = 1;
  1763  0630  3001               	movlw	1
  1764  0631  00B8               	movwf	_bGLOBAL_CHANGING_PATTERN	;volatile
  1765                           
  1766                           ;main.c: 645: INC_EEPROM_MODE();
  1767  0632  278B               	fcall	_INC_EEPROM_MODE
  1768                           
  1769                           ;main.c: 646: GLOBAL_Dummy_Counter = 0;
  1770  0633  01A6               	clrf	_GLOBAL_Dummy_Counter	;volatile
  1771                           
  1772                           ;main.c: 647: bGLOBAL_IS_PROGRAMMING = 1;
  1773  0634  3001               	movlw	1
  1774  0635  00BE               	movwf	_bGLOBAL_IS_PROGRAMMING	;volatile
  1775  0636                     l2200:	
  1776                           
  1777                           ;main.c: 648: }
  1778                           ;main.c: 649: }
  1779                           ;main.c: 650: }
  1780                           ;main.c: 652: if (((GLOBAL_SYNC_Line_LOW_counter > 3) || (GLOBAL_Dummy_Counter > 4)) && 
      +                          (!bGLOBAL_CHANGING_PATTERN_Enforce) && bGLOBAL_CHANGING_PATTERN)
  1781  0636  3004               	movlw	4
  1782  0637  022C               	subwf	_GLOBAL_SYNC_Line_LOW_counter,w	;volatile
  1783  0638  1803               	skipnc
  1784  0639  2E3E               	goto	l2204
  1785  063A  3005               	movlw	5
  1786  063B  0226               	subwf	_GLOBAL_Dummy_Counter,w	;volatile
  1787  063C  1C03               	skipc
  1788  063D  2E48               	goto	l2214
  1789  063E                     l2204:	
  1790  063E  0839               	movf	_bGLOBAL_CHANGING_PATTERN_Enforce,w	;volatile
  1791  063F  1D03               	btfss	3,2
  1792  0640  2E48               	goto	l2214
  1793  0641  0838               	movf	_bGLOBAL_CHANGING_PATTERN,w	;volatile
  1794  0642  1903               	btfsc	3,2
  1795  0643  2E48               	goto	l2214
  1796                           
  1797                           ;main.c: 653: {
  1798                           ;main.c: 654: bGLOBAL_CHANGING_PATTERN_Enforce = 1;
  1799  0644  3001               	movlw	1
  1800  0645  00B9               	movwf	_bGLOBAL_CHANGING_PATTERN_Enforce	;volatile
  1801                           
  1802                           ;main.c: 655: GLOBAL_Dummy_Counter = 0;
  1803  0646  01A6               	clrf	_GLOBAL_Dummy_Counter	;volatile
  1804                           
  1805                           ;main.c: 656: (GPIObits.GP5) = 1;
  1806  0647  1685               	bsf	5,5	;volatile
  1807  0648                     l2214:	
  1808                           
  1809                           ;main.c: 657: }
  1810                           ;main.c: 659: if (bGLOBAL_CHANGING_PATTERN_Enforce && (GLOBAL_Dummy_Counter > 12))
  1811  0648  0839               	movf	_bGLOBAL_CHANGING_PATTERN_Enforce,w	;volatile
  1812  0649  1903               	btfsc	3,2
  1813  064A  2E53               	goto	l2224
  1814  064B  300D               	movlw	13
  1815  064C  0226               	subwf	_GLOBAL_Dummy_Counter,w	;volatile
  1816  064D  1C03               	skipc
  1817  064E  2E53               	goto	l2224
  1818                           
  1819                           ;main.c: 660: {
  1820                           ;main.c: 661: GLOBAL_Dummy_Counter = 0;
  1821  064F  01A6               	clrf	_GLOBAL_Dummy_Counter	;volatile
  1822                           
  1823                           ;main.c: 662: bGLOBAL_DISABLE_SYNC_Line_PRESSED = 1;
  1824  0650  3001               	movlw	1
  1825  0651  00BA               	movwf	_bGLOBAL_DISABLE_SYNC_Line_PRESSED	;volatile
  1826                           
  1827                           ;main.c: 663: (GPIObits.GP5) = 0;
  1828  0652  1285               	bcf	5,5	;volatile
  1829  0653                     l2224:	
  1830                           
  1831                           ;main.c: 664: }
  1832                           ;main.c: 666: if (bGLOBAL_DISABLE_SYNC_Line_PRESSED)
  1833  0653  083A               	movf	_bGLOBAL_DISABLE_SYNC_Line_PRESSED,w	;volatile
  1834  0654  1903               	btfsc	3,2
  1835  0655  2E5E               	goto	l2234
  1836                           
  1837                           ;main.c: 667: {
  1838                           ;main.c: 668: if (!(GPIObits.GP4))
  1839  0656  1A05               	btfsc	5,4	;volatile
  1840  0657  2E5A               	goto	l2230
  1841                           
  1842                           ;main.c: 669: {
  1843                           ;main.c: 670: GLOBAL_Dummy_Counter = 0;
  1844  0658  01A6               	clrf	_GLOBAL_Dummy_Counter	;volatile
  1845                           
  1846                           ;main.c: 671: GLOBAL_SYNC_Line_counter = 0;
  1847  0659  01AD               	clrf	_GLOBAL_SYNC_Line_counter	;volatile
  1848  065A                     l2230:	
  1849                           
  1850                           ;main.c: 672: }
  1851                           ;main.c: 673: if (GLOBAL_Dummy_Counter > 7 + 3)
  1852  065A  300B               	movlw	11
  1853  065B  0226               	subwf	_GLOBAL_Dummy_Counter,w	;volatile
  1854  065C  1803               	btfsc	3,0
  1855                           
  1856                           ;main.c: 674: bGLOBAL_DISABLE_SYNC_Line_PRESSED = 0;
  1857  065D  01BA               	clrf	_bGLOBAL_DISABLE_SYNC_Line_PRESSED	;volatile
  1858  065E                     l2234:	
  1859                           
  1860                           ;main.c: 675: }
  1861                           ;main.c: 677: if (!bGLOBAL_SYNC_Line_PRESSED)
  1862  065E  0844               	movf	_bGLOBAL_SYNC_Line_PRESSED,w	;volatile
  1863  065F  1D03               	btfss	3,2
  1864  0660  2DE8               	goto	l2146
  1865                           
  1866                           ;main.c: 678: {
  1867                           ;main.c: 679: bGLOBAL_ENABLE_LEDS = 1;
  1868  0661  3001               	movlw	1
  1869  0662  00BB               	movwf	_bGLOBAL_ENABLE_LEDS	;volatile
  1870                           
  1871                           ;main.c: 680: bGLOBAL_CHANGING_PATTERN = 0;
  1872  0663  01B8               	clrf	_bGLOBAL_CHANGING_PATTERN	;volatile
  1873                           
  1874                           ;main.c: 681: bGLOBAL_CHANGING_PATTERN_Enforce = 0;
  1875  0664  01B9               	clrf	_bGLOBAL_CHANGING_PATTERN_Enforce	;volatile
  1876                           
  1877                           ;main.c: 682: bGLOBAL_IS_PROGRAMMING = 0;
  1878  0665  01BE               	clrf	_bGLOBAL_IS_PROGRAMMING	;volatile
  1879  0666  2DE8               	goto	l2146
  1880  0667                     __end_of_main:	
  1881                           
  1882                           	psect	text1
  1883  0714                     __ptext1:	
  1884 ;; *************** function _SetOUTPUT *****************
  1885 ;; Defined at:
  1886 ;;		line 409 in file "main.c"
  1887 ;; Parameters:    Size  Location     Type
  1888 ;;		None
  1889 ;; Auto vars:     Size  Location     Type
  1890 ;;  temporaryGPI    1    5[COMMON] unsigned char 
  1891 ;; Return value:  Size  Location     Type
  1892 ;;                  1    wreg      void 
  1893 ;; Registers used:
  1894 ;;		wreg, status,2, status,0
  1895 ;; Tracked objects:
  1896 ;;		On entry : 900/0
  1897 ;;		On exit  : 900/0
  1898 ;;		Unchanged: 800/0
  1899 ;; Data sizes:     COMMON   BANK0   BANK1
  1900 ;;      Params:         0       0       0
  1901 ;;      Locals:         1       0       0
  1902 ;;      Temps:          1       0       0
  1903 ;;      Totals:         2       0       0
  1904 ;;Total ram usage:        2 bytes
  1905 ;; Hardware stack levels used:    1
  1906 ;; Hardware stack levels required when called:    2
  1907 ;; This function calls:
  1908 ;;		Nothing
  1909 ;; This function is called by:
  1910 ;;		_main
  1911 ;; This function uses a non-reentrant model
  1912 ;;
  1913                           
  1914                           
  1915                           ;psect for function _SetOUTPUT
  1916  0714                     _SetOUTPUT:	
  1917                           
  1918                           ;main.c: 413: if (bGLOBAL_ENABLE_LEDS)
  1919                           
  1920                           ;incstack = 0
  1921                           ; Regs used in _SetOUTPUT: [wreg+status,2+status,0]
  1922  0714  083B               	movf	_bGLOBAL_ENABLE_LEDS,w	;volatile
  1923  0715  1903               	btfsc	3,2
  1924  0716  2F2C               	goto	l1552
  1925                           
  1926                           ;main.c: 414: {
  1927                           ;main.c: 415: temporaryGPIO = OUTPUT_BUFFER & GLOBAL_CHANNELS_EN;
  1928  0717  0836               	movf	_OUTPUT_BUFFER,w	;volatile
  1929  0718  00F5               	movwf	SetOUTPUT@temporaryGPIO
  1930  0719  0824               	movf	_GLOBAL_CHANNELS_EN,w	;volatile
  1931  071A  05F5               	andwf	SetOUTPUT@temporaryGPIO,f
  1932                           
  1933                           ;main.c: 417: if((temporaryGPIO & 0x03) == 0x01 || (temporaryGPIO & 0x03) == 0x02)
  1934  071B  3003               	movlw	3
  1935  071C  0575               	andwf	SetOUTPUT@temporaryGPIO,w
  1936  071D  00F4               	movwf	??_SetOUTPUT
  1937  071E  0374               	decf	??_SetOUTPUT,w
  1938  071F  3003               	movlw	3
  1939  0720  1903               	btfsc	3,2
  1940  0721  2F28               	goto	L1
  1941  0722  0575               	andwf	SetOUTPUT@temporaryGPIO,w
  1942  0723  00F4               	movwf	??_SetOUTPUT
  1943  0724  3A02               	xorlw	2
  1944  0725  1D03               	btfss	3,2
  1945  0726  2F29               	goto	l1550
  1946                           
  1947                           ;main.c: 418: temporaryGPIO ^= 0x03;
  1948  0727  3003               	movlw	3
  1949  0728                     L1:	
  1950  0728  06F5               	xorwf	SetOUTPUT@temporaryGPIO,f
  1951  0729                     l1550:	
  1952                           
  1953                           ;main.c: 420: GPIO = temporaryGPIO;
  1954  0729  0875               	movf	SetOUTPUT@temporaryGPIO,w
  1955  072A  0085               	movwf	5	;volatile
  1956                           
  1957                           ;main.c: 421: }
  1958  072B  0008               	return
  1959  072C                     l1552:	
  1960                           
  1961                           ;main.c: 422: else
  1962                           ;main.c: 423: {
  1963                           ;main.c: 424: if (bGLOBAL_IS_PROGRAMMING)
  1964  072C  083E               	movf	_bGLOBAL_IS_PROGRAMMING,w	;volatile
  1965  072D  1903               	btfsc	3,2
  1966  072E  2F3B               	goto	l1562
  1967                           
  1968                           ;main.c: 425: {
  1969                           ;main.c: 426: if (!bGLOBAL_CHANGING_PATTERN)
  1970  072F  0838               	movf	_bGLOBAL_CHANGING_PATTERN,w	;volatile
  1971  0730  1D03               	btfss	3,2
  1972  0731  0008               	return
  1973                           
  1974                           ;main.c: 427: {
  1975                           ;main.c: 428: if (bGLOBAL_InPhase)
  1976  0732  083F               	movf	_bGLOBAL_InPhase,w	;volatile
  1977  0733  1903               	btfsc	3,2
  1978  0734  2F38               	goto	l1560
  1979                           
  1980                           ;main.c: 429: GPIO = 0x23;
  1981  0735  3023               	movlw	35
  1982  0736  0085               	movwf	5	;volatile
  1983  0737  0008               	return
  1984  0738                     l1560:	
  1985                           
  1986                           ;main.c: 430: else
  1987                           ;main.c: 431: GPIO = 0x21;
  1988  0738  3021               	movlw	33
  1989  0739  0085               	movwf	5	;volatile
  1990  073A  0008               	return
  1991  073B                     l1562:	
  1992                           
  1993                           ;main.c: 434: {
  1994                           ;main.c: 435: GPIO = 0;
  1995  073B  0185               	clrf	5	;volatile
  1996  073C  0008               	return
  1997  073D                     __end_of_SetOUTPUT:	
  1998                           
  1999                           	psect	text2
  2000  073D                     __ptext2:	
  2001 ;; *************** function _Initial_Start *****************
  2002 ;; Defined at:
  2003 ;;		line 581 in file "main.c"
  2004 ;; Parameters:    Size  Location     Type
  2005 ;;		None
  2006 ;; Auto vars:     Size  Location     Type
  2007 ;;  i               1   19[BANK0 ] unsigned char 
  2008 ;;  read_data       1   18[BANK0 ] unsigned char 
  2009 ;; Return value:  Size  Location     Type
  2010 ;;                  1    wreg      void 
  2011 ;; Registers used:
  2012 ;;		wreg, fsr0l, fsr0h, status,2, status,0, pclath, cstack
  2013 ;; Tracked objects:
  2014 ;;		On entry : 100/0
  2015 ;;		On exit  : 900/0
  2016 ;;		Unchanged: 0/0
  2017 ;; Data sizes:     COMMON   BANK0   BANK1
  2018 ;;      Params:         0       0       0
  2019 ;;      Locals:         0       2       0
  2020 ;;      Temps:          0       1       0
  2021 ;;      Totals:         0       3       0
  2022 ;;Total ram usage:        3 bytes
  2023 ;; Hardware stack levels used:    1
  2024 ;; Hardware stack levels required when called:    6
  2025 ;; This function calls:
  2026 ;;		_Update_ComboPattern_Index
  2027 ;;		_Update_Input_Mode_Type
  2028 ;;		_WriteEEPROMDefaults
  2029 ;;		___eetoc
  2030 ;; This function is called by:
  2031 ;;		_main
  2032 ;; This function uses a non-reentrant model
  2033 ;;
  2034                           
  2035                           
  2036                           ;psect for function _Initial_Start
  2037  073D                     _Initial_Start:	
  2038                           
  2039                           ;main.c: 583: unsigned char read_data;
  2040                           ;main.c: 584: read_data = EEprom_Written_Flag;
  2041                           
  2042                           ;incstack = 0
  2043                           ; Regs used in _Initial_Start: [wreg-fsr0h+status,2+status,0+pclath+cstack]
  2044  073D  3004               	movlw	(low _EEprom_Written_Flag)& (0+255)
  2045  073E  2059               	fcall	___eetoc
  2046  073F  00D8               	movwf	Initial_Start@read_data
  2047                           
  2048                           ;main.c: 585: if (read_data ^ 0xA6)
  2049  0740  3AA6               	xorlw	166
  2050  0741  1903               	btfsc	3,2
  2051  0742  2F44               	goto	l2124
  2052                           
  2053                           ;main.c: 586: WriteEEPROMDefaults();
  2054  0743  204C               	fcall	_WriteEEPROMDefaults
  2055  0744                     l2124:	
  2056                           
  2057                           ;main.c: 587: for (unsigned char i=0;i<2;i++)
  2058  0744  01D9               	clrf	Initial_Start@i
  2059  0745                     l2130:	
  2060                           
  2061                           ;main.c: 588: {
  2062                           ;main.c: 589: GLOBAL_Mode_copy[i] = EEprom_mode[i];
  2063  0745  0859               	movf	Initial_Start@i,w
  2064  0746  3E02               	addlw	low _EEprom_mode
  2065  0747  2059               	fcall	___eetoc
  2066  0748  00D7               	movwf	??_Initial_Start
  2067  0749  0859               	movf	Initial_Start@i,w
  2068  074A  3E20               	addlw	(low (_GLOBAL_Mode_copy| 0))& (0+255)
  2069  074B  0084               	movwf	4
  2070  074C  0857               	movf	??_Initial_Start,w
  2071  074D  1383               	bcf	3,7	;select IRP bank0
  2072  074E  0080               	movwf	0
  2073                           
  2074                           ;main.c: 590: bGLOBAL_InPhase_copy[i] = EEprom_InPhase[i];
  2075  074F  0859               	movf	Initial_Start@i,w
  2076  0750  3E00               	addlw	low _EEprom_InPhase
  2077  0751  2059               	fcall	___eetoc
  2078  0752  00D7               	movwf	??_Initial_Start
  2079  0753  0859               	movf	Initial_Start@i,w
  2080  0754  3E22               	addlw	(low (_bGLOBAL_InPhase_copy| 0))& (0+255)
  2081  0755  0084               	movwf	4
  2082  0756  0857               	movf	??_Initial_Start,w
  2083  0757  1383               	bcf	3,7	;select IRP bank0
  2084  0758  0080               	movwf	0
  2085  0759  3002               	movlw	2
  2086  075A  0AD9               	incf	Initial_Start@i,f
  2087  075B  0259               	subwf	Initial_Start@i,w
  2088  075C  1C03               	skipc
  2089  075D  2F45               	goto	l2130
  2090  075E                     l2136:	
  2091  075E  3005               	movlw	5
  2092  075F  0226               	subwf	_GLOBAL_Dummy_Counter,w	;volatile
  2093  0760  1C03               	skipc
  2094  0761  2F5E               	goto	l2136
  2095                           
  2096                           ;main.c: 593: Update_Input_Mode_Type();
  2097  0762  2037               	fcall	_Update_Input_Mode_Type
  2098                           
  2099                           ;main.c: 594: Update_ComboPattern_Index();
  2100  0763  2E67               	ljmp	l1472
  2101  0764                     __end_of_Initial_Start:	
  2102                           
  2103                           	psect	text3
  2104  004C                     __ptext3:	
  2105 ;; *************** function _WriteEEPROMDefaults *****************
  2106 ;; Defined at:
  2107 ;;		line 452 in file "main.c"
  2108 ;; Parameters:    Size  Location     Type
  2109 ;;		None
  2110 ;; Auto vars:     Size  Location     Type
  2111 ;;		None
  2112 ;; Return value:  Size  Location     Type
  2113 ;;                  1    wreg      void 
  2114 ;; Registers used:
  2115 ;;		wreg, fsr0l, fsr0h, status,2, status,0, pclath, cstack
  2116 ;; Tracked objects:
  2117 ;;		On entry : 100/0
  2118 ;;		On exit  : 100/0
  2119 ;;		Unchanged: 0/0
  2120 ;; Data sizes:     COMMON   BANK0   BANK1
  2121 ;;      Params:         0       0       0
  2122 ;;      Locals:         0       0       0
  2123 ;;      Temps:          0       0       0
  2124 ;;      Totals:         0       0       0
  2125 ;;Total ram usage:        0 bytes
  2126 ;; Hardware stack levels used:    1
  2127 ;; Hardware stack levels required when called:    5
  2128 ;; This function calls:
  2129 ;;		_ReWriteEEPROM
  2130 ;;		___eetoc
  2131 ;; This function is called by:
  2132 ;;		_Initial_Start
  2133 ;; This function uses a non-reentrant model
  2134 ;;
  2135                           
  2136                           
  2137                           ;psect for function _WriteEEPROMDefaults
  2138  004C                     _WriteEEPROMDefaults:	
  2139                           
  2140                           ;main.c: 454: GLOBAL_Mode_copy[0] = 0;
  2141                           
  2142                           ;incstack = 0
  2143                           ; Regs used in _WriteEEPROMDefaults: [wreg-fsr0h+status,2+status,0+pclath+cstack]
  2144  004C  01A0               	clrf	_GLOBAL_Mode_copy	;volatile
  2145                           
  2146                           ;main.c: 455: GLOBAL_Mode_copy[1] = 18;
  2147  004D  3012               	movlw	18
  2148  004E  00A1               	movwf	_GLOBAL_Mode_copy+1	;volatile
  2149                           
  2150                           ;main.c: 457: bGLOBAL_InPhase_copy[0] = 1;
  2151  004F  3001               	movlw	1
  2152  0050  00A2               	movwf	_bGLOBAL_InPhase_copy	;volatile
  2153                           
  2154                           ;main.c: 458: bGLOBAL_InPhase_copy[1] = 1;
  2155  0051  00A3               	movwf	_bGLOBAL_InPhase_copy+1	;volatile
  2156                           
  2157                           ;main.c: 461: ReWriteEEPROM();
  2158  0052  27D5               	fcall	_ReWriteEEPROM
  2159                           
  2160                           ;main.c: 463: if (EEprom_Written_Flag != 0xA6)
  2161  0053  3004               	movlw	(low _EEprom_Written_Flag)& (0+255)
  2162  0054  2059               	fcall	___eetoc
  2163  0055  3AA6               	xorlw	166
  2164  0056  1903               	skipnz
  2165  0057  0008               	return
  2166  0058                     l215:	
  2167                           ;main.c: 464: while (1) {}
  2168                           
  2169  0058  2858               	goto	l215
  2170  0059                     __end_of_WriteEEPROMDefaults:	
  2171                           
  2172                           	psect	text4
  2173  0059                     __ptext4:	
  2174 ;; *************** function ___eetoc *****************
  2175 ;; Defined at:
  2176 ;;		line 96 in file "C:\Program Files (x86)\Microchip\xc8\v1.38\sources\pic\eeprom.c"
  2177 ;; Parameters:    Size  Location     Type
  2178 ;;  addr            1    wreg     PTR eeprom void 
  2179 ;;		 -> EEprom_InPhase(2), EEprom_mode(2), EEprom_Written_Flag(1), 
  2180 ;; Auto vars:     Size  Location     Type
  2181 ;;  addr            1   14[BANK0 ] PTR eeprom void 
  2182 ;;		 -> EEprom_InPhase(2), EEprom_mode(2), EEprom_Written_Flag(1), 
  2183 ;;  data            1   15[BANK0 ] unsigned char 
  2184 ;; Return value:  Size  Location     Type
  2185 ;;                  1    wreg      unsigned char 
  2186 ;; Registers used:
  2187 ;;		wreg, fsr0l, fsr0h, status,2, status,0, pclath, cstack
  2188 ;; Tracked objects:
  2189 ;;		On entry : 0/0
  2190 ;;		On exit  : 100/0
  2191 ;;		Unchanged: 0/0
  2192 ;; Data sizes:     COMMON   BANK0   BANK1
  2193 ;;      Params:         0       0       0
  2194 ;;      Locals:         0       2       0
  2195 ;;      Temps:          0       0       0
  2196 ;;      Totals:         0       2       0
  2197 ;;Total ram usage:        2 bytes
  2198 ;; Hardware stack levels used:    1
  2199 ;; Hardware stack levels required when called:    3
  2200 ;; This function calls:
  2201 ;;		_eecpymem
  2202 ;; This function is called by:
  2203 ;;		_WriteEEPROMDefaults
  2204 ;;		_Initial_Start
  2205 ;; This function uses a non-reentrant model
  2206 ;;
  2207                           
  2208                           
  2209                           ;psect for function ___eetoc
  2210  0059                     ___eetoc:	
  2211                           
  2212                           ;incstack = 0
  2213                           ; Regs used in ___eetoc: [wreg-fsr0h+status,2+status,0+pclath+cstack]
  2214                           ;___eetoc@addr stored from wreg
  2215  0059  1283               	bcf	3,5	;RP0=0, select bank0
  2216  005A  00D4               	movwf	___eetoc@addr
  2217  005B  00F4               	movwf	eecpymem@from
  2218  005C  3055               	movlw	(low (___eetoc@data| 0))& (0+255)
  2219  005D  01F5               	clrf	eecpymem@size
  2220  005E  0AF5               	incf	eecpymem@size,f
  2221  005F  201B               	fcall	_eecpymem
  2222  0060  1283               	bcf	3,5	;RP0=0, select bank0
  2223  0061  0855               	movf	___eetoc@data,w
  2224  0062  0008               	return
  2225  0063                     __end_of___eetoc:	
  2226                           
  2227                           	psect	text5
  2228  001B                     __ptext5:	
  2229 ;; *************** function _eecpymem *****************
  2230 ;; Defined at:
  2231 ;;		line 6 in file "C:\Program Files (x86)\Microchip\xc8\v1.38\sources\pic\eeprom.c"
  2232 ;; Parameters:    Size  Location     Type
  2233 ;;  to              1    wreg     PTR volatile unsigned ch
  2234 ;;		 -> __eetofl@data(3), __eetoft@data(3), __eetol@data(4), __eetom@data(3), 
  2235 ;;		 -> __eetoi@data(2), __eetoc@data(1), 
  2236 ;;  from            1    4[COMMON] PTR eeprom unsigned char
  2237 ;;		 -> EEprom_InPhase(2), EEprom_mode(2), EEprom_Written_Flag(1), 
  2238 ;;  size            1    5[COMMON] unsigned char 
  2239 ;; Auto vars:     Size  Location     Type
  2240 ;;  to              1   13[BANK0 ] PTR volatile unsigned ch
  2241 ;;		 -> __eetofl@data(3), __eetoft@data(3), __eetol@data(4), __eetom@data(3), 
  2242 ;;		 -> __eetoi@data(2), __eetoc@data(1), 
  2243 ;;  cp              1   12[BANK0 ] PTR volatile unsigned ch
  2244 ;;		 -> __eetofl@data(3), __eetoft@data(3), __eetol@data(4), __eetom@data(3), 
  2245 ;;		 -> __eetoi@data(2), __eetoc@data(1), 
  2246 ;; Return value:  Size  Location     Type
  2247 ;;                  1    wreg      void 
  2248 ;; Registers used:
  2249 ;;		wreg, fsr0l, fsr0h, status,2, status,0
  2250 ;; Tracked objects:
  2251 ;;		On entry : 100/0
  2252 ;;		On exit  : 100/100
  2253 ;;		Unchanged: 0/0
  2254 ;; Data sizes:     COMMON   BANK0   BANK1
  2255 ;;      Params:         2       0       0
  2256 ;;      Locals:         0       2       0
  2257 ;;      Temps:          0       0       0
  2258 ;;      Totals:         2       2       0
  2259 ;;Total ram usage:        4 bytes
  2260 ;; Hardware stack levels used:    1
  2261 ;; Hardware stack levels required when called:    2
  2262 ;; This function calls:
  2263 ;;		Nothing
  2264 ;; This function is called by:
  2265 ;;		___eetoc
  2266 ;; This function uses a non-reentrant model
  2267 ;;
  2268                           
  2269                           
  2270                           ;psect for function _eecpymem
  2271  001B                     _eecpymem:	
  2272                           
  2273                           ;incstack = 0
  2274                           ; Regs used in _eecpymem: [wreg-fsr0h+status,2+status,0]
  2275                           ;eecpymem@to stored from wreg
  2276  001B  00D3               	movwf	eecpymem@to
  2277  001C  0853               	movf	eecpymem@to,w
  2278  001D  00D2               	movwf	eecpymem@cp
  2279  001E                     l360:	
  2280  001E  1683               	bsf	3,5	;RP0=1, select bank1
  2281  001F  189C               	btfsc	28,1	;volsfr
  2282  0020  281E               	goto	l360
  2283  0021  0874               	movf	eecpymem@from,w
  2284  0022  009B               	movwf	27	;volatile
  2285  0023                     l2056:	
  2286  0023  03F5               	decf	eecpymem@size,f
  2287  0024  0F75               	incfsz	eecpymem@size,w
  2288  0025  2827               	goto	l365
  2289  0026  0008               	return
  2290  0027                     l365:	
  2291  0027  189C               	btfsc	28,1	;volsfr
  2292  0028  2827               	goto	l365
  2293  0029  139C               	bcf	28,7	;volsfr
  2294  002A  141C               	bsf	28,0	;volsfr
  2295  002B  1283               	bcf	3,5	;RP0=0, select bank0
  2296  002C  0852               	movf	eecpymem@cp,w
  2297  002D  0084               	movwf	4
  2298  002E  1683               	bsf	3,5	;RP0=1, select bank1
  2299  002F  081A               	movf	26,w	;volatile
  2300  0030  1383               	bcf	3,7	;select IRP bank0
  2301  0031  0080               	movwf	0
  2302  0032  1283               	bcf	3,5	;RP0=0, select bank0
  2303  0033  0AD2               	incf	eecpymem@cp,f
  2304  0034  1683               	bsf	3,5	;RP0=1, select bank1
  2305  0035  0A9B               	incf	27,f	;volatile
  2306  0036  2823               	goto	l2056
  2307  0037                     __end_of_eecpymem:	
  2308                           
  2309                           	psect	text6
  2310  0037                     __ptext6:	
  2311 ;; *************** function _Update_Input_Mode_Type *****************
  2312 ;; Defined at:
  2313 ;;		line 568 in file "main.c"
  2314 ;; Parameters:    Size  Location     Type
  2315 ;;		None
  2316 ;; Auto vars:     Size  Location     Type
  2317 ;;		None
  2318 ;; Return value:  Size  Location     Type
  2319 ;;                  1    wreg      void 
  2320 ;; Registers used:
  2321 ;;		wreg, fsr0l, fsr0h, status,2, status,0, pclath, cstack
  2322 ;; Tracked objects:
  2323 ;;		On entry : 0/0
  2324 ;;		On exit  : 900/0
  2325 ;;		Unchanged: 0/0
  2326 ;; Data sizes:     COMMON   BANK0   BANK1
  2327 ;;      Params:         0       0       0
  2328 ;;      Locals:         0       0       0
  2329 ;;      Temps:          0       0       0
  2330 ;;      Totals:         0       0       0
  2331 ;;Total ram usage:        0 bytes
  2332 ;; Hardware stack levels used:    1
  2333 ;; Hardware stack levels required when called:    3
  2334 ;; This function calls:
  2335 ;;		_Update_ComboPattern_Index
  2336 ;; This function is called by:
  2337 ;;		_Initial_Start
  2338 ;;		_main
  2339 ;; This function uses a non-reentrant model
  2340 ;;
  2341                           
  2342                           
  2343                           ;psect for function _Update_Input_Mode_Type
  2344  0037                     _Update_Input_Mode_Type:	
  2345                           
  2346                           ;main.c: 570: GLOBAL_Selected_Mode_Type = 0;
  2347                           
  2348                           ;incstack = 0
  2349                           ; Regs used in _Update_Input_Mode_Type: [wreg-fsr0h+status,2+status,0+pclath+cstack]
  2350  0037  1283               	bcf	3,5	;RP0=0, select bank0
  2351  0038  01AF               	clrf	_GLOBAL_Selected_Mode_Type	;volatile
  2352                           
  2353                           ;main.c: 571: if (bGLOBAL_MODE1_PRESSED)
  2354  0039  0840               	movf	_bGLOBAL_MODE1_PRESSED,w	;volatile
  2355  003A  1903               	btfsc	3,2
  2356  003B  283E               	goto	l257
  2357                           
  2358                           ;main.c: 572: GLOBAL_Selected_Mode_Type = 1;
  2359  003C  3001               	movlw	1
  2360  003D  00AF               	movwf	_GLOBAL_Selected_Mode_Type	;volatile
  2361  003E                     l257:	
  2362                           
  2363                           ;main.c: 575: if (GLOBAL_Selected_Mode_Type_copy != GLOBAL_Selected_Mode_Type)
  2364  003E  0830               	movf	_GLOBAL_Selected_Mode_Type_copy,w	;volatile
  2365  003F  062F               	xorwf	_GLOBAL_Selected_Mode_Type,w	;volatile
  2366  0040  1903               	skipnz
  2367  0041  2843               	goto	l1532
  2368                           
  2369                           ;main.c: 576: Update_ComboPattern_Index();
  2370  0042  2667               	fcall	_Update_ComboPattern_Index
  2371  0043                     l1532:	
  2372                           
  2373                           ;main.c: 577: bGLOBAL_InPhase = bGLOBAL_InPhase_copy[GLOBAL_Selected_Mode_Type];
  2374  0043  082F               	movf	_GLOBAL_Selected_Mode_Type,w
  2375  0044  3E22               	addlw	(low (_bGLOBAL_InPhase_copy| 0))& (0+255)
  2376  0045  0084               	movwf	4
  2377  0046  1383               	bcf	3,7	;select IRP bank0
  2378  0047  0800               	movf	0,w
  2379  0048  00BF               	movwf	_bGLOBAL_InPhase	;volatile
  2380                           
  2381                           ;main.c: 578: GLOBAL_Selected_Mode_Type_copy = GLOBAL_Selected_Mode_Type;
  2382  0049  082F               	movf	_GLOBAL_Selected_Mode_Type,w	;volatile
  2383  004A  00B0               	movwf	_GLOBAL_Selected_Mode_Type_copy	;volatile
  2384  004B  0008               	return
  2385  004C                     __end_of_Update_Input_Mode_Type:	
  2386                           
  2387                           	psect	text7
  2388  0764                     __ptext7:	
  2389 ;; *************** function _InitApp *****************
  2390 ;; Defined at:
  2391 ;;		line 22 in file "user.c"
  2392 ;; Parameters:    Size  Location     Type
  2393 ;;		None
  2394 ;; Auto vars:     Size  Location     Type
  2395 ;;		None
  2396 ;; Return value:  Size  Location     Type
  2397 ;;                  1    wreg      void 
  2398 ;; Registers used:
  2399 ;;		wreg, status,2, status,0, pclath, cstack
  2400 ;; Tracked objects:
  2401 ;;		On entry : B00/100
  2402 ;;		On exit  : 100/0
  2403 ;;		Unchanged: 0/0
  2404 ;; Data sizes:     COMMON   BANK0   BANK1
  2405 ;;      Params:         0       0       0
  2406 ;;      Locals:         0       0       0
  2407 ;;      Temps:          0       0       0
  2408 ;;      Totals:         0       0       0
  2409 ;;Total ram usage:        0 bytes
  2410 ;; Hardware stack levels used:    1
  2411 ;; Hardware stack levels required when called:    3
  2412 ;; This function calls:
  2413 ;;		_WaitForSYNC_PU
  2414 ;; This function is called by:
  2415 ;;		_main
  2416 ;; This function uses a non-reentrant model
  2417 ;;
  2418                           
  2419                           
  2420                           ;psect for function _InitApp
  2421  0764                     _InitApp:	
  2422                           
  2423                           ;user.c: 32: WDTCON = 0x17;
  2424                           
  2425                           ;incstack = 0
  2426                           ; Regs used in _InitApp: [wreg+status,2+status,0+pclath+cstack]
  2427  0764  3017               	movlw	23
  2428  0765  1283               	bcf	3,5	;RP0=0, select bank0
  2429  0766  0098               	movwf	24	;volatile
  2430                           
  2431                           ;user.c: 33: OPTION_REGbits.nGPPU = 0;
  2432  0767  1683               	bsf	3,5	;RP0=1, select bank1
  2433  0768  1381               	bcf	1,7	;volatile
  2434                           
  2435                           ;user.c: 34: WPU = 0x10;
  2436  0769  3010               	movlw	16
  2437  076A  0095               	movwf	21	;volatile
  2438                           
  2439                           ;user.c: 35: GPIO = 0;
  2440  076B  1283               	bcf	3,5	;RP0=0, select bank0
  2441  076C  0185               	clrf	5	;volatile
  2442                           
  2443                           ;user.c: 36: CMCON0 = 0x07;
  2444  076D  3007               	movlw	7
  2445  076E  0099               	movwf	25	;volatile
  2446                           
  2447                           ;user.c: 37: ANSEL = 0;
  2448  076F  1683               	bsf	3,5	;RP0=1, select bank1
  2449  0770  019F               	clrf	31	;volatile
  2450                           
  2451                           ;user.c: 38: TRISIO = ~(0x1 + 0x2 + 0x20);
  2452  0771  30DC               	movlw	220
  2453  0772  0085               	movwf	5	;volatile
  2454                           
  2455                           ;user.c: 39: bGLOBAL_ENABLE_LEDS = 0;
  2456  0773  1283               	bcf	3,5	;RP0=0, select bank0
  2457  0774  01BB               	clrf	_bGLOBAL_ENABLE_LEDS	;volatile
  2458                           
  2459                           ;user.c: 41: OPTION_REGbits.T0CS = 0;
  2460  0775  1683               	bsf	3,5	;RP0=1, select bank1
  2461  0776  1281               	bcf	1,5	;volatile
  2462                           
  2463                           ;user.c: 42: OPTION_REGbits.PS = 0x7;
  2464  0777  3007               	movlw	7
  2465  0778  0481               	iorwf	1,f	;volatile
  2466                           
  2467                           ;user.c: 43: OPTION_REGbits.PSA = 0;
  2468  0779  1181               	bcf	1,3	;volatile
  2469  077A  0064               	clrwdt	;# 
  2470                           
  2471                           ;user.c: 47: WaitForSYNC_PU();
  2472  077B  2063               	fcall	_WaitForSYNC_PU
  2473                           
  2474                           ;user.c: 48: WPU = 0x00;
  2475  077C  1683               	bsf	3,5	;RP0=1, select bank1
  2476  077D  0195               	clrf	21	;volatile
  2477                           
  2478                           ;user.c: 49: TRISIObits.TRISIO4 = 0;
  2479  077E  1205               	bcf	5,4	;volatile
  2480                           
  2481                           ;user.c: 50: GPIO = 0;
  2482  077F  1283               	bcf	3,5	;RP0=0, select bank0
  2483  0780  0185               	clrf	5	;volatile
  2484                           
  2485                           ;user.c: 51: TRISIObits.TRISIO4 = 1;
  2486  0781  1683               	bsf	3,5	;RP0=1, select bank1
  2487  0782  1605               	bsf	5,4	;volatile
  2488                           
  2489                           ;user.c: 52: WaitForSYNC_PU();
  2490  0783  2063               	fcall	_WaitForSYNC_PU
  2491                           
  2492                           ;user.c: 53: TMR0 = 178;
  2493  0784  30B2               	movlw	178
  2494  0785  1283               	bcf	3,5	;RP0=0, select bank0
  2495  0786  0081               	movwf	1	;volatile
  2496                           
  2497                           ;user.c: 54: INTCONbits.TMR0IF = 0;
  2498  0787  110B               	bcf	11,2	;volatile
  2499                           
  2500                           ;user.c: 55: INTCON = 0x20 + 0x80;
  2501  0788  30A0               	movlw	160
  2502  0789  008B               	movwf	11	;volatile
  2503  078A  0008               	return
  2504  078B                     __end_of_InitApp:	
  2505                           
  2506                           	psect	text8
  2507  0063                     __ptext8:	
  2508 ;; *************** function _WaitForSYNC_PU *****************
  2509 ;; Defined at:
  2510 ;;		line 440 in file "main.c"
  2511 ;; Parameters:    Size  Location     Type
  2512 ;;		None
  2513 ;; Auto vars:     Size  Location     Type
  2514 ;;  temp001         1    4[COMMON] unsigned char 
  2515 ;; Return value:  Size  Location     Type
  2516 ;;                  1    wreg      void 
  2517 ;; Registers used:
  2518 ;;		wreg, status,2, status,0
  2519 ;; Tracked objects:
  2520 ;;		On entry : 0/100
  2521 ;;		On exit  : 0/0
  2522 ;;		Unchanged: 0/0
  2523 ;; Data sizes:     COMMON   BANK0   BANK1
  2524 ;;      Params:         0       0       0
  2525 ;;      Locals:         1       0       0
  2526 ;;      Temps:          0       0       0
  2527 ;;      Totals:         1       0       0
  2528 ;;Total ram usage:        1 bytes
  2529 ;; Hardware stack levels used:    1
  2530 ;; Hardware stack levels required when called:    2
  2531 ;; This function calls:
  2532 ;;		Nothing
  2533 ;; This function is called by:
  2534 ;;		_InitApp
  2535 ;; This function uses a non-reentrant model
  2536 ;;
  2537                           
  2538                           
  2539                           ;psect for function _WaitForSYNC_PU
  2540  0063                     _WaitForSYNC_PU:	
  2541  0063                     l1504:	
  2542                           ;incstack = 0
  2543                           ; Regs used in _WaitForSYNC_PU: [wreg+status,2+status,0]
  2544                           
  2545                           
  2546                           ;main.c: 442: unsigned char temp001 = 0;
  2547  0063  01F4               	clrf	WaitForSYNC_PU@temp001
  2548  0064                     l1510:	
  2549                           ;main.c: 443: while(temp001 < 250)
  2550                           
  2551  0064  30FA               	movlw	250
  2552  0065  0274               	subwf	WaitForSYNC_PU@temp001,w
  2553  0066  1803               	btfsc	3,0
  2554  0067  0008               	return
  2555                           
  2556                           ;main.c: 444: {
  2557                           ;main.c: 445: if ((GPIObits.GP4))
  2558  0068  1283               	bcf	3,5	;RP0=0, select bank0
  2559  0069  1E05               	btfss	5,4	;volatile
  2560  006A  2863               	goto	l1504
  2561                           
  2562                           ;main.c: 446: temp001++;
  2563  006B  0AF4               	incf	WaitForSYNC_PU@temp001,f
  2564  006C  2864               	goto	l1510
  2565  006D                     __end_of_WaitForSYNC_PU:	
  2566                           
  2567                           	psect	text9
  2568  078B                     __ptext9:	
  2569 ;; *************** function _INC_EEPROM_MODE *****************
  2570 ;; Defined at:
  2571 ;;		line 478 in file "main.c"
  2572 ;; Parameters:    Size  Location     Type
  2573 ;;		None
  2574 ;; Auto vars:     Size  Location     Type
  2575 ;;  Temp_Mode_Da    1   17[BANK0 ] unsigned char 
  2576 ;; Return value:  Size  Location     Type
  2577 ;;                  1    wreg      void 
  2578 ;; Registers used:
  2579 ;;		wreg, fsr0l, fsr0h, status,2, status,0, pclath, cstack
  2580 ;; Tracked objects:
  2581 ;;		On entry : 100/0
  2582 ;;		On exit  : 900/0
  2583 ;;		Unchanged: 0/0
  2584 ;; Data sizes:     COMMON   BANK0   BANK1
  2585 ;;      Params:         0       0       0
  2586 ;;      Locals:         0       1       0
  2587 ;;      Temps:          0       0       0
  2588 ;;      Totals:         0       1       0
  2589 ;;Total ram usage:        1 bytes
  2590 ;; Hardware stack levels used:    1
  2591 ;; Hardware stack levels required when called:    5
  2592 ;; This function calls:
  2593 ;;		_ReWriteEEPROM
  2594 ;;		_Update_ComboPattern_Index
  2595 ;; This function is called by:
  2596 ;;		_main
  2597 ;; This function uses a non-reentrant model
  2598 ;;
  2599                           
  2600                           
  2601                           ;psect for function _INC_EEPROM_MODE
  2602  078B                     _INC_EEPROM_MODE:	
  2603                           
  2604                           ;main.c: 480: unsigned char Temp_Mode_Data;
  2605                           ;main.c: 481: Temp_Mode_Data = GLOBAL_Mode_copy[GLOBAL_Selected_Mode_Type];
  2606                           
  2607                           ;incstack = 0
  2608                           ; Regs used in _INC_EEPROM_MODE: [wreg-fsr0h+status,2+status,0+pclath+cstack]
  2609  078B  082F               	movf	_GLOBAL_Selected_Mode_Type,w
  2610  078C  3E20               	addlw	(low (_GLOBAL_Mode_copy| 0))& (0+255)
  2611  078D  0084               	movwf	4
  2612  078E  1383               	bcf	3,7	;select IRP bank0
  2613  078F  0800               	movf	0,w
  2614  0790  00D7               	movwf	INC_EEPROM_MODE@Temp_Mode_Data
  2615                           
  2616                           ;main.c: 489: if (GLOBAL_Selected_Mode_Type == 1)
  2617  0791  0B2F               	decfsz	_GLOBAL_Selected_Mode_Type,w	;volatile
  2618  0792  2F9F               	goto	l2106
  2619                           
  2620                           ;main.c: 490: {
  2621                           ;main.c: 491: if (Temp_Mode_Data < (40 - 1))
  2622  0793  3027               	movlw	39
  2623  0794  0257               	subwf	INC_EEPROM_MODE@Temp_Mode_Data,w
  2624                           
  2625                           ;main.c: 492: GLOBAL_Mode_copy[GLOBAL_Selected_Mode_Type]++;
  2626  0795  082F               	movf	_GLOBAL_Selected_Mode_Type,w
  2627  0796  1803               	skipnc
  2628  0797  2F9C               	goto	L2
  2629  0798  3E20               	addlw	(low (_GLOBAL_Mode_copy| 0))& (0+255)
  2630  0799  0084               	movwf	4
  2631  079A  0A80               	incf	0,f
  2632  079B  2F9F               	goto	l2106
  2633  079C                     L2:	
  2634                           ;main.c: 493: else GLOBAL_Mode_copy[GLOBAL_Selected_Mode_Type] = 0;
  2635                           
  2636  079C  3E20               	addlw	(low (_GLOBAL_Mode_copy| 0))& (0+255)
  2637  079D  0084               	movwf	4
  2638  079E  0180               	clrf	0
  2639  079F                     l2106:	
  2640                           
  2641                           ;main.c: 494: }
  2642                           ;main.c: 495: if (GLOBAL_Selected_Mode_Type == 0)
  2643  079F  082F               	movf	_GLOBAL_Selected_Mode_Type,w	;volatile
  2644  07A0  1D03               	btfss	3,2
  2645  07A1  2FAE               	goto	l2114
  2646                           
  2647                           ;main.c: 496: {
  2648                           ;main.c: 497: if (Temp_Mode_Data < (40 - 1))
  2649  07A2  3027               	movlw	39
  2650  07A3  0257               	subwf	INC_EEPROM_MODE@Temp_Mode_Data,w
  2651                           
  2652                           ;main.c: 498: GLOBAL_Mode_copy[GLOBAL_Selected_Mode_Type]++;
  2653  07A4  082F               	movf	_GLOBAL_Selected_Mode_Type,w
  2654  07A5  1803               	skipnc
  2655  07A6  2FAB               	goto	L3
  2656  07A7  3E20               	addlw	(low (_GLOBAL_Mode_copy| 0))& (0+255)
  2657  07A8  0084               	movwf	4
  2658  07A9  0A80               	incf	0,f
  2659  07AA  2FAE               	goto	l2114
  2660  07AB                     L3:	
  2661                           ;main.c: 499: else GLOBAL_Mode_copy[GLOBAL_Selected_Mode_Type] = 0;
  2662                           
  2663  07AB  3E20               	addlw	(low (_GLOBAL_Mode_copy| 0))& (0+255)
  2664  07AC  0084               	movwf	4
  2665  07AD  0180               	clrf	0
  2666  07AE                     l2114:	
  2667                           
  2668                           ;main.c: 500: }
  2669                           ;main.c: 501: ReWriteEEPROM();
  2670  07AE  27D5               	fcall	_ReWriteEEPROM
  2671                           
  2672                           ;main.c: 502: Update_ComboPattern_Index();
  2673  07AF  2E67               	ljmp	l1472
  2674  07B0                     __end_of_INC_EEPROM_MODE:	
  2675                           
  2676                           	psect	text10
  2677  0667                     __ptext10:	
  2678 ;; *************** function _Update_ComboPattern_Index *****************
  2679 ;; Defined at:
  2680 ;;		line 536 in file "main.c"
  2681 ;; Parameters:    Size  Location     Type
  2682 ;;		None
  2683 ;; Auto vars:     Size  Location     Type
  2684 ;;		None
  2685 ;; Return value:  Size  Location     Type
  2686 ;;                  1    wreg      void 
  2687 ;; Registers used:
  2688 ;;		wreg, fsr0l, fsr0h, status,2, status,0
  2689 ;; Tracked objects:
  2690 ;;		On entry : 0/0
  2691 ;;		On exit  : 900/0
  2692 ;;		Unchanged: 0/0
  2693 ;; Data sizes:     COMMON   BANK0   BANK1
  2694 ;;      Params:         0       0       0
  2695 ;;      Locals:         0       0       0
  2696 ;;      Temps:          0       0       0
  2697 ;;      Totals:         0       0       0
  2698 ;;Total ram usage:        0 bytes
  2699 ;; Hardware stack levels used:    1
  2700 ;; Hardware stack levels required when called:    2
  2701 ;; This function calls:
  2702 ;;		Nothing
  2703 ;; This function is called by:
  2704 ;;		_INC_EEPROM_MODE
  2705 ;;		_Update_Input_Mode_Type
  2706 ;;		_Initial_Start
  2707 ;; This function uses a non-reentrant model
  2708 ;;
  2709                           
  2710                           
  2711                           ;psect for function _Update_ComboPattern_Index
  2712  0667                     _Update_ComboPattern_Index:	
  2713  0667                     l1472:	
  2714                           ;incstack = 0
  2715                           ; Regs used in _Update_ComboPattern_Index: [wreg-fsr0h+status,2+status,0]
  2716                           
  2717                           
  2718                           ;main.c: 538: GLOBAL_Selected_Mode_Number = GLOBAL_Mode_copy[GLOBAL_Selected_Mode_Type];
  2719  0667  1283               	bcf	3,5	;RP0=0, select bank0
  2720  0668  082F               	movf	_GLOBAL_Selected_Mode_Type,w
  2721  0669  3E20               	addlw	(low (_GLOBAL_Mode_copy| 0))& (0+255)
  2722  066A  0084               	movwf	4
  2723  066B  1383               	bcf	3,7	;select IRP bank0
  2724  066C  0800               	movf	0,w
  2725  066D  00AE               	movwf	_GLOBAL_Selected_Mode_Number	;volatile
  2726                           
  2727                           ;main.c: 539: if (GLOBAL_Selected_Mode_Number < 9)
  2728  066E  3009               	movlw	9
  2729  066F  022E               	subwf	_GLOBAL_Selected_Mode_Number,w	;volatile
  2730  0670  1803               	skipnc
  2731  0671  2E76               	goto	l1478
  2732                           
  2733                           ;main.c: 540: {
  2734                           ;main.c: 541: GLOBAL_combo_patterns_index = GLOBAL_Selected_Mode_Number;
  2735  0672  082E               	movf	_GLOBAL_Selected_Mode_Number,w	;volatile
  2736  0673  00F8               	movwf	_GLOBAL_combo_patterns_index	;volatile
  2737                           
  2738                           ;main.c: 542: GLOBAL_CHANNELS_EN = 0xFD;
  2739  0674  30FD               	movlw	253
  2740  0675  2E82               	goto	L4
  2741  0676                     l1478:	
  2742                           ;main.c: 543: } else
  2743                           
  2744                           
  2745                           ;main.c: 544: {
  2746                           ;main.c: 545: GLOBAL_Selected_Mode_Number = GLOBAL_Selected_Mode_Number - 9;
  2747  0676  082E               	movf	_GLOBAL_Selected_Mode_Number,w	;volatile
  2748  0677  3EF7               	addlw	247
  2749  0678  00AE               	movwf	_GLOBAL_Selected_Mode_Number	;volatile
  2750                           
  2751                           ;main.c: 546: GLOBAL_combo_patterns_index = GLOBAL_Selected_Mode_Number;
  2752  0679  082E               	movf	_GLOBAL_Selected_Mode_Number,w	;volatile
  2753  067A  00F8               	movwf	_GLOBAL_combo_patterns_index	;volatile
  2754                           
  2755                           ;main.c: 547: if (GLOBAL_Selected_Mode_Number < 9)
  2756  067B  3009               	movlw	9
  2757  067C  022E               	subwf	_GLOBAL_Selected_Mode_Number,w	;volatile
  2758  067D  1803               	skipnc
  2759  067E  2E81               	goto	l1486
  2760                           
  2761                           ;main.c: 548: {
  2762                           ;main.c: 549: GLOBAL_CHANNELS_EN = 0xFE;
  2763  067F  30FE               	movlw	254
  2764  0680  2E82               	goto	L4
  2765  0681                     l1486:	
  2766                           ;main.c: 550: }
  2767                           
  2768                           
  2769                           ;main.c: 551: else
  2770                           ;main.c: 552: GLOBAL_CHANNELS_EN = 0xFF;
  2771  0681  30FF               	movlw	255
  2772  0682                     L4:	
  2773  0682  00A4               	movwf	_GLOBAL_CHANNELS_EN	;volatile
  2774                           
  2775                           ;main.c: 553: }
  2776                           ;main.c: 554: if (GLOBAL_combo_patterns_index > 26)
  2777  0683  301B               	movlw	27
  2778  0684  0278               	subwf	_GLOBAL_combo_patterns_index,w	;volatile
  2779  0685  1C03               	skipc
  2780  0686  2E8C               	goto	l1492
  2781                           
  2782                           ;main.c: 555: {
  2783                           ;main.c: 556: OUTPUT_BUFFER = OUTPUT_BUFFER & GLOBAL_CHANNELS_EN_copy;
  2784  0687  0825               	movf	_GLOBAL_CHANNELS_EN_copy,w	;volatile
  2785  0688  05B6               	andwf	_OUTPUT_BUFFER,f	;volatile
  2786                           
  2787                           ;main.c: 557: bGLOBAL_STEADY_ON = 1;
  2788  0689  3001               	movlw	1
  2789  068A  00C3               	movwf	_bGLOBAL_STEADY_ON	;volatile
  2790                           
  2791                           ;main.c: 558: }
  2792  068B  2E8D               	goto	l1494
  2793  068C                     l1492:	
  2794                           
  2795                           ;main.c: 559: else
  2796                           ;main.c: 560: bGLOBAL_STEADY_ON = 0;
  2797  068C  01C3               	clrf	_bGLOBAL_STEADY_ON	;volatile
  2798  068D                     l1494:	
  2799                           
  2800                           ;main.c: 561: GLOBAL_CHANNELS_EN_copy = GLOBAL_CHANNELS_EN;
  2801  068D  0824               	movf	_GLOBAL_CHANNELS_EN,w	;volatile
  2802  068E  00A5               	movwf	_GLOBAL_CHANNELS_EN_copy	;volatile
  2803                           
  2804                           ;main.c: 562: GLOBAL_sub_patterns_column_index = 7;
  2805  068F  3007               	movlw	7
  2806  0690  00F9               	movwf	_GLOBAL_sub_patterns_column_index	;volatile
  2807                           
  2808                           ;main.c: 563: GLOBAL_sub_patterns_timer = 0;
  2809  0691  01B5               	clrf	_GLOBAL_sub_patterns_timer	;volatile
  2810                           
  2811                           ;main.c: 564: GLOBAL_Dummy_Counter2 = 0;
  2812  0692  01A7               	clrf	_GLOBAL_Dummy_Counter2	;volatile
  2813  0693  0008               	return
  2814  0694                     __end_of_Update_ComboPattern_Index:	
  2815                           
  2816                           	psect	text11
  2817  07D5                     __ptext11:	
  2818 ;; *************** function _ReWriteEEPROM *****************
  2819 ;; Defined at:
  2820 ;;		line 467 in file "main.c"
  2821 ;; Parameters:    Size  Location     Type
  2822 ;;		None
  2823 ;; Auto vars:     Size  Location     Type
  2824 ;;  i               1   16[BANK0 ] unsigned char 
  2825 ;; Return value:  Size  Location     Type
  2826 ;;                  1    wreg      void 
  2827 ;; Registers used:
  2828 ;;		wreg, fsr0l, fsr0h, status,2, status,0, pclath, cstack
  2829 ;; Tracked objects:
  2830 ;;		On entry : 100/0
  2831 ;;		On exit  : 100/100
  2832 ;;		Unchanged: 0/0
  2833 ;; Data sizes:     COMMON   BANK0   BANK1
  2834 ;;      Params:         0       0       0
  2835 ;;      Locals:         0       1       0
  2836 ;;      Temps:          0       0       0
  2837 ;;      Totals:         0       1       0
  2838 ;;Total ram usage:        1 bytes
  2839 ;; Hardware stack levels used:    1
  2840 ;; Hardware stack levels required when called:    4
  2841 ;; This function calls:
  2842 ;;		___ctoee
  2843 ;; This function is called by:
  2844 ;;		_WriteEEPROMDefaults
  2845 ;;		_INC_EEPROM_MODE
  2846 ;;		_main
  2847 ;; This function uses a non-reentrant model
  2848 ;;
  2849                           
  2850                           
  2851                           ;psect for function _ReWriteEEPROM
  2852  07D5                     _ReWriteEEPROM:	
  2853                           
  2854                           ;main.c: 469: EEprom_Written_Flag = 0xFF;
  2855                           
  2856                           ;incstack = 0
  2857                           ; Regs used in _ReWriteEEPROM: [wreg-fsr0h+status,2+status,0+pclath+cstack]
  2858  07D5  30FF               	movlw	255
  2859  07D6  00D4               	movwf	___ctoee@data
  2860  07D7  3004               	movlw	(low _EEprom_Written_Flag)& (0+255)
  2861  07D8  206D               	fcall	___ctoee
  2862                           
  2863                           ;main.c: 470: for (unsigned char i=0;i<2;i++)
  2864  07D9  1283               	bcf	3,5	;RP0=0, select bank0
  2865  07DA  01D6               	clrf	ReWriteEEPROM@i
  2866  07DB                     l2070:	
  2867                           
  2868                           ;main.c: 471: {
  2869                           ;main.c: 472: EEprom_mode[i] = GLOBAL_Mode_copy[i];
  2870  07DB  0856               	movf	ReWriteEEPROM@i,w
  2871  07DC  3E20               	addlw	(low (_GLOBAL_Mode_copy| 0))& (0+255)
  2872  07DD  0084               	movwf	4
  2873  07DE  1383               	bcf	3,7	;select IRP bank0
  2874  07DF  0800               	movf	0,w
  2875  07E0  00D4               	movwf	___ctoee@data
  2876  07E1  0856               	movf	ReWriteEEPROM@i,w
  2877  07E2  3E02               	addlw	low _EEprom_mode
  2878  07E3  206D               	fcall	___ctoee
  2879                           
  2880                           ;main.c: 473: EEprom_InPhase[i] = bGLOBAL_InPhase_copy[i];
  2881  07E4  1283               	bcf	3,5	;RP0=0, select bank0
  2882  07E5  0856               	movf	ReWriteEEPROM@i,w
  2883  07E6  3E22               	addlw	(low (_bGLOBAL_InPhase_copy| 0))& (0+255)
  2884  07E7  0084               	movwf	4
  2885  07E8  1383               	bcf	3,7	;select IRP bank0
  2886  07E9  0800               	movf	0,w
  2887  07EA  00D4               	movwf	___ctoee@data
  2888  07EB  0856               	movf	ReWriteEEPROM@i,w
  2889  07EC  3E00               	addlw	low _EEprom_InPhase
  2890  07ED  206D               	fcall	___ctoee
  2891  07EE  3002               	movlw	2
  2892  07EF  1283               	bcf	3,5	;RP0=0, select bank0
  2893  07F0  0AD6               	incf	ReWriteEEPROM@i,f
  2894  07F1  0256               	subwf	ReWriteEEPROM@i,w
  2895  07F2  1C03               	skipc
  2896  07F3  2FDB               	goto	l2070
  2897                           
  2898                           ;main.c: 474: }
  2899                           ;main.c: 475: EEprom_Written_Flag = 0xA6;
  2900  07F4  30A6               	movlw	166
  2901  07F5  00D4               	movwf	___ctoee@data
  2902  07F6  3004               	movlw	(low _EEprom_Written_Flag)& (0+255)
  2903  07F7  286D               	ljmp	___ctoee
  2904  07F8                     __end_of_ReWriteEEPROM:	
  2905                           
  2906                           	psect	text12
  2907  006D                     __ptext12:	
  2908 ;; *************** function ___ctoee *****************
  2909 ;; Defined at:
  2910 ;;		line 128 in file "C:\Program Files (x86)\Microchip\xc8\v1.38\sources\pic\eeprom.c"
  2911 ;; Parameters:    Size  Location     Type
  2912 ;;  addr            1    wreg     PTR eeprom void 
  2913 ;;		 -> EEprom_InPhase(2), EEprom_mode(2), EEprom_Written_Flag(1), 
  2914 ;;  data            1   14[BANK0 ] unsigned char 
  2915 ;; Auto vars:     Size  Location     Type
  2916 ;;  addr            1   15[BANK0 ] PTR eeprom void 
  2917 ;;		 -> EEprom_InPhase(2), EEprom_mode(2), EEprom_Written_Flag(1), 
  2918 ;; Return value:  Size  Location     Type
  2919 ;;                  1    wreg      unsigned char 
  2920 ;; Registers used:
  2921 ;;		wreg, fsr0l, fsr0h, status,2, status,0, pclath, cstack
  2922 ;; Tracked objects:
  2923 ;;		On entry : 100/0
  2924 ;;		On exit  : 100/100
  2925 ;;		Unchanged: 0/0
  2926 ;; Data sizes:     COMMON   BANK0   BANK1
  2927 ;;      Params:         0       1       0
  2928 ;;      Locals:         0       1       0
  2929 ;;      Temps:          0       0       0
  2930 ;;      Totals:         0       2       0
  2931 ;;Total ram usage:        2 bytes
  2932 ;; Hardware stack levels used:    1
  2933 ;; Hardware stack levels required when called:    3
  2934 ;; This function calls:
  2935 ;;		_memcpyee
  2936 ;; This function is called by:
  2937 ;;		_ReWriteEEPROM
  2938 ;; This function uses a non-reentrant model
  2939 ;;
  2940                           
  2941                           
  2942                           ;psect for function ___ctoee
  2943  006D                     ___ctoee:	
  2944                           
  2945                           ;incstack = 0
  2946                           ; Regs used in ___ctoee: [wreg-fsr0h+status,2+status,0+pclath+cstack]
  2947                           ;___ctoee@addr stored from wreg
  2948  006D  00D5               	movwf	___ctoee@addr
  2949  006E  3054               	movlw	(low (___ctoee@data| 0))& (0+255)
  2950  006F  00F4               	movwf	memcpyee@from
  2951  0070  01F5               	clrf	memcpyee@size
  2952  0071  0AF5               	incf	memcpyee@size,f
  2953  0072  0855               	movf	___ctoee@addr,w
  2954  0073  2E94               	ljmp	_memcpyee
  2955  0074                     __end_of___ctoee:	
  2956                           
  2957                           	psect	text13
  2958  0694                     __ptext13:	
  2959 ;; *************** function _memcpyee *****************
  2960 ;; Defined at:
  2961 ;;		line 39 in file "C:\Program Files (x86)\Microchip\xc8\v1.38\sources\pic\eeprom.c"
  2962 ;; Parameters:    Size  Location     Type
  2963 ;;  to              1    wreg     PTR eeprom unsigned char
  2964 ;;		 -> EEprom_InPhase(2), EEprom_mode(2), EEprom_Written_Flag(1), 
  2965 ;;  from            1    4[COMMON] PTR const unsigned char 
  2966 ;;		 -> __fltoee@data(3), __fttoee@data(3), __ltoee@data(4), __mtoee@data(3), 
  2967 ;;		 -> __itoee@data(2), __ctoee@data(1), 
  2968 ;;  size            1    5[COMMON] unsigned char 
  2969 ;; Auto vars:     Size  Location     Type
  2970 ;;  to              1   13[BANK0 ] PTR eeprom unsigned char
  2971 ;;		 -> EEprom_InPhase(2), EEprom_mode(2), EEprom_Written_Flag(1), 
  2972 ;;  ptr             1   12[BANK0 ] PTR const unsigned char 
  2973 ;;		 -> __fltoee@data(3), __fttoee@data(3), __ltoee@data(4), __mtoee@data(3), 
  2974 ;;		 -> __itoee@data(2), __ctoee@data(1), 
  2975 ;; Return value:  Size  Location     Type
  2976 ;;                  1    wreg      void 
  2977 ;; Registers used:
  2978 ;;		wreg, fsr0l, fsr0h, status,2, status,0
  2979 ;; Tracked objects:
  2980 ;;		On entry : 100/0
  2981 ;;		On exit  : 100/100
  2982 ;;		Unchanged: 0/0
  2983 ;; Data sizes:     COMMON   BANK0   BANK1
  2984 ;;      Params:         2       0       0
  2985 ;;      Locals:         0       2       0
  2986 ;;      Temps:          0       0       0
  2987 ;;      Totals:         2       2       0
  2988 ;;Total ram usage:        4 bytes
  2989 ;; Hardware stack levels used:    1
  2990 ;; Hardware stack levels required when called:    2
  2991 ;; This function calls:
  2992 ;;		Nothing
  2993 ;; This function is called by:
  2994 ;;		___ctoee
  2995 ;; This function uses a non-reentrant model
  2996 ;;
  2997                           
  2998                           
  2999                           ;psect for function _memcpyee
  3000  0694                     _memcpyee:	
  3001                           
  3002                           ;incstack = 0
  3003                           ; Regs used in _memcpyee: [wreg-fsr0h+status,2+status,0]
  3004                           ;memcpyee@to stored from wreg
  3005  0694  00D3               	movwf	memcpyee@to
  3006  0695  0874               	movf	memcpyee@from,w
  3007  0696  00D2               	movwf	memcpyee@ptr
  3008  0697                     l372:	
  3009  0697  1683               	bsf	3,5	;RP0=1, select bank1
  3010  0698  189C               	btfsc	28,1	;volsfr
  3011  0699  2E97               	goto	l372
  3012  069A  1283               	bcf	3,5	;RP0=0, select bank0
  3013  069B  0853               	movf	memcpyee@to,w
  3014  069C  3EFF               	addlw	255
  3015  069D  1683               	bsf	3,5	;RP0=1, select bank1
  3016  069E  009B               	movwf	27	;volatile
  3017  069F  139C               	bcf	28,7	;volsfr
  3018  06A0                     l2044:	
  3019  06A0  03F5               	decf	memcpyee@size,f
  3020  06A1  0F75               	incfsz	memcpyee@size,w
  3021  06A2  2EA4               	goto	l377
  3022  06A3  0008               	return
  3023  06A4                     l377:	
  3024  06A4  189C               	btfsc	28,1	;volsfr
  3025  06A5  2EA4               	goto	l377
  3026  06A6  1283               	bcf	3,5	;RP0=0, select bank0
  3027  06A7  0852               	movf	memcpyee@ptr,w
  3028  06A8  0084               	movwf	4
  3029  06A9  1383               	bcf	3,7	;select IRP bank0
  3030  06AA  0800               	movf	0,w
  3031  06AB  1683               	bsf	3,5	;RP0=1, select bank1
  3032  06AC  009A               	movwf	26	;volatile
  3033  06AD  1283               	bcf	3,5	;RP0=0, select bank0
  3034  06AE  0AD2               	incf	memcpyee@ptr,f
  3035  06AF  1683               	bsf	3,5	;RP0=1, select bank1
  3036  06B0  0A9B               	incf	27,f	;volatile
  3037  06B1  1003               	bcf	3,0	;volatile
  3038  06B2  1B8B               	btfsc	11,7	;volatile
  3039  06B3  1403               	bsf	3,0	;volatile
  3040  06B4  138B               	bcf	11,7	;volatile
  3041  06B5  151C               	bsf	28,2	;volsfr
  3042  06B6  3055               	movlw	85
  3043  06B7  009D               	movwf	29	;volsfr
  3044  06B8  30AA               	movlw	170
  3045  06B9  009D               	movwf	29	;volsfr
  3046  06BA  149C               	bsf	28,1	;volsfr
  3047  06BB  111C               	bcf	28,2	;volsfr
  3048  06BC  1C03               	btfss	3,0	;volatile
  3049  06BD  2EA0               	goto	l2044
  3050  06BE  178B               	bsf	11,7	;volatile
  3051  06BF  2EA0               	goto	l2044
  3052  06C0                     __end_of_memcpyee:	
  3053                           
  3054                           	psect	text14
  3055  0074                     __ptext14:	
  3056 ;; *************** function _ConfigureOscillator *****************
  3057 ;; Defined at:
  3058 ;;		line 18 in file "system.c"
  3059 ;; Parameters:    Size  Location     Type
  3060 ;;		None
  3061 ;; Auto vars:     Size  Location     Type
  3062 ;;		None
  3063 ;; Return value:  Size  Location     Type
  3064 ;;                  1    wreg      void 
  3065 ;; Registers used:
  3066 ;;		wreg
  3067 ;; Tracked objects:
  3068 ;;		On entry : B00/0
  3069 ;;		On exit  : B00/100
  3070 ;;		Unchanged: A00/0
  3071 ;; Data sizes:     COMMON   BANK0   BANK1
  3072 ;;      Params:         0       0       0
  3073 ;;      Locals:         0       0       0
  3074 ;;      Temps:          0       0       0
  3075 ;;      Totals:         0       0       0
  3076 ;;Total ram usage:        0 bytes
  3077 ;; Hardware stack levels used:    1
  3078 ;; Hardware stack levels required when called:    2
  3079 ;; This function calls:
  3080 ;;		Nothing
  3081 ;; This function is called by:
  3082 ;;		_main
  3083 ;; This function uses a non-reentrant model
  3084 ;;
  3085                           
  3086                           
  3087                           ;psect for function _ConfigureOscillator
  3088  0074                     _ConfigureOscillator:	
  3089                           
  3090                           ;system.c: 27: OSCCON = 0x40 | 0x20 | 0x10 | 0x1 & (~0x8) ;
  3091                           
  3092                           ;incstack = 0
  3093                           ; Regs used in _ConfigureOscillator: [wreg]
  3094  0074  3071               	movlw	113
  3095  0075  1683               	bsf	3,5	;RP0=1, select bank1
  3096  0076  008F               	movwf	15	;volatile
  3097  0077                     l305:	
  3098                           ;system.c: 29: {}
  3099                           
  3100  0077  190F               	btfsc	15,2	;volatile
  3101  0078  1C8F               	btfss	15,1	;volatile
  3102  0079  0008               	return
  3103  007A  2877               	goto	l305
  3104  007B                     __end_of_ConfigureOscillator:	
  3105                           
  3106                           	psect	text15
  3107  04A6                     __ptext15:	
  3108 ;; *************** function _isr *****************
  3109 ;; Defined at:
  3110 ;;		line 26 in file "interrupts.c"
  3111 ;; Parameters:    Size  Location     Type
  3112 ;;		None
  3113 ;; Auto vars:     Size  Location     Type
  3114 ;;  temp_data1      1    3[COMMON] volatile unsigned char 
  3115 ;; Return value:  Size  Location     Type
  3116 ;;                  1    wreg      void 
  3117 ;; Registers used:
  3118 ;;		wreg, fsr0l, fsr0h, status,2, status,0, btemp+1, pclath, cstack
  3119 ;; Tracked objects:
  3120 ;;		On entry : 0/0
  3121 ;;		On exit  : 100/0
  3122 ;;		Unchanged: 0/0
  3123 ;; Data sizes:     COMMON   BANK0   BANK1
  3124 ;;      Params:         0       0       0
  3125 ;;      Locals:         1       0       0
  3126 ;;      Temps:          0      12       0
  3127 ;;      Totals:         1      12       0
  3128 ;;Total ram usage:       13 bytes
  3129 ;; Hardware stack levels used:    1
  3130 ;; Hardware stack levels required when called:    1
  3131 ;; This function calls:
  3132 ;;		_Read_Mode_Input
  3133 ;;		___bmul
  3134 ;;		i1_SetOUTPUT
  3135 ;; This function is called by:
  3136 ;;		Interrupt level 1
  3137 ;; This function uses a non-reentrant model
  3138 ;;
  3139                           
  3140                           
  3141                           ;psect for function _isr
  3142  04A6                     _isr:	
  3143                           
  3144                           ;interrupts.c: 28: volatile unsigned char temp_data1;
  3145                           ;interrupts.c: 54: if (INTCONbits.TMR0IF && INTCONbits.TMR0IE)
  3146  04A6  190B               	btfsc	11,2	;volatile
  3147  04A7  1E8B               	btfss	11,5	;volatile
  3148  04A8  2DD8               	goto	i1l85
  3149                           
  3150                           ;interrupts.c: 55: {
  3151                           ;interrupts.c: 56: TMR0 = 178;
  3152  04A9  30B2               	movlw	178
  3153  04AA  0081               	movwf	1	;volatile
  3154                           
  3155                           ;interrupts.c: 57: if (bGLOBAL_OUTPUT_BUFFER_CHANGED || bGLOBAL_STEADY_ON)
  3156  04AB  0842               	movf	_bGLOBAL_OUTPUT_BUFFER_CHANGED,w	;volatile
  3157  04AC  1903               	btfsc	3,2
  3158  04AD  0843               	movf	_bGLOBAL_STEADY_ON,w	;volatile
  3159  04AE  1903               	btfsc	3,2
  3160  04AF  2CB2               	goto	i1l1776
  3161                           
  3162                           ;interrupts.c: 58: {
  3163                           ;interrupts.c: 59: SetOUTPUT();
  3164  04B0  26C0               	fcall	i1_SetOUTPUT
  3165                           
  3166                           ;interrupts.c: 60: bGLOBAL_OUTPUT_BUFFER_CHANGED = 0;
  3167  04B1  01C2               	clrf	_bGLOBAL_OUTPUT_BUFFER_CHANGED	;volatile
  3168  04B2                     i1l1776:	
  3169                           
  3170                           ;interrupts.c: 61: }
  3171                           ;interrupts.c: 62: if ((GLOBAL_sub_patterns_column_index < 7) && (GLOBAL_sub_patterns_ti
      +                          mer == 0))
  3172  04B2  3007               	movlw	7
  3173  04B3  0279               	subwf	_GLOBAL_sub_patterns_column_index,w	;volatile
  3174  04B4  1803               	skipnc
  3175  04B5  2CFF               	goto	i1l1796
  3176  04B6  0835               	movf	_GLOBAL_sub_patterns_timer,w	;volatile
  3177  04B7  1D03               	btfss	3,2
  3178  04B8  2CFF               	goto	i1l1796
  3179                           
  3180                           ;interrupts.c: 63: {
  3181                           ;interrupts.c: 64: if (GLOBAL_sub_patterns_index_copy != GLOBAL_sub_patterns_index)
  3182  04B9  0834               	movf	_GLOBAL_sub_patterns_index_copy,w	;volatile
  3183  04BA  0633               	xorwf	_GLOBAL_sub_patterns_index,w	;volatile
  3184  04BB  1903               	skipnz
  3185  04BC  2CC0               	goto	i1l1786
  3186                           
  3187                           ;interrupts.c: 65: {
  3188                           ;interrupts.c: 66: GLOBAL_sub_patterns_column_index = 0;
  3189  04BD  01F9               	clrf	_GLOBAL_sub_patterns_column_index	;volatile
  3190                           
  3191                           ;interrupts.c: 67: GLOBAL_sub_patterns_index_copy = GLOBAL_sub_patterns_index;
  3192  04BE  0833               	movf	_GLOBAL_sub_patterns_index,w	;volatile
  3193  04BF  00B4               	movwf	_GLOBAL_sub_patterns_index_copy	;volatile
  3194  04C0                     i1l1786:	
  3195                           
  3196                           ;interrupts.c: 68: }
  3197                           ;interrupts.c: 70: GLOBAL_sub_patterns_timer = ROM_Sub_Patterns_Time[GLOBAL_sub_patterns
      +                          _index][GLOBAL_sub_patterns_column_index];
  3198  04C0  3007               	movlw	7
  3199  04C1  00F0               	movwf	___bmul@multiplicand
  3200  04C2  0833               	movf	_GLOBAL_sub_patterns_index,w
  3201  04C3  26EA               	fcall	___bmul
  3202  04C4  3ED4               	addlw	low (_ROM_Sub_Patterns_Time| (0+32768))
  3203  04C5  00C6               	movwf	??_isr
  3204  04C6  3083               	movlw	high (_ROM_Sub_Patterns_Time| (0+32768))
  3205  04C7  1803               	skipnc
  3206  04C8  3E01               	addlw	1
  3207  04C9  00C7               	movwf	??_isr+1
  3208  04CA  0879               	movf	_GLOBAL_sub_patterns_column_index,w
  3209  04CB  0746               	addwf	??_isr,w
  3210  04CC  0084               	movwf	4
  3211  04CD  0847               	movf	??_isr+1,w
  3212  04CE  1803               	skipnc
  3213  04CF  0A47               	incf	??_isr+1,w
  3214  04D0  00FF               	movwf	127
  3215  04D1  2100               	fcall	stringtab
  3216  04D2  00B5               	movwf	_GLOBAL_sub_patterns_timer	;volatile
  3217                           
  3218                           ;interrupts.c: 72: OUTPUT_BUFFER = ROM_Sub_Patterns[GLOBAL_sub_patterns_index][GLOBAL_su
      +                          b_patterns_column_index];
  3219  04D3  3007               	movlw	7
  3220  04D4  00F0               	movwf	___bmul@multiplicand
  3221  04D5  0833               	movf	_GLOBAL_sub_patterns_index,w
  3222  04D6  26EA               	fcall	___bmul
  3223  04D7  3E02               	addlw	low (_ROM_Sub_Patterns| (0+32768))
  3224  04D8  00C6               	movwf	??_isr
  3225  04D9  3083               	movlw	high (_ROM_Sub_Patterns| (0+32768))
  3226  04DA  1803               	skipnc
  3227  04DB  3E01               	addlw	1
  3228  04DC  00C7               	movwf	??_isr+1
  3229  04DD  0879               	movf	_GLOBAL_sub_patterns_column_index,w
  3230  04DE  0746               	addwf	??_isr,w
  3231  04DF  0084               	movwf	4
  3232  04E0  0847               	movf	??_isr+1,w
  3233  04E1  1803               	skipnc
  3234  04E2  0A47               	incf	??_isr+1,w
  3235  04E3  00FF               	movwf	127
  3236  04E4  2100               	fcall	stringtab
  3237  04E5  00B6               	movwf	_OUTPUT_BUFFER	;volatile
  3238                           
  3239                           ;interrupts.c: 74: GLOBAL_sub_patterns_column_index++;
  3240  04E6  0AF9               	incf	_GLOBAL_sub_patterns_column_index,f	;volatile
  3241                           
  3242                           ;interrupts.c: 75: if (ROM_Sub_Patterns_Time[GLOBAL_sub_patterns_index][GLOBAL_sub_patte
      +                          rns_column_index] == 0)
  3243  04E7  3007               	movlw	7
  3244  04E8  00F0               	movwf	___bmul@multiplicand
  3245  04E9  0833               	movf	_GLOBAL_sub_patterns_index,w
  3246  04EA  26EA               	fcall	___bmul
  3247  04EB  3ED4               	addlw	low (_ROM_Sub_Patterns_Time| (0+32768))
  3248  04EC  00C6               	movwf	??_isr
  3249  04ED  3083               	movlw	high (_ROM_Sub_Patterns_Time| (0+32768))
  3250  04EE  1803               	skipnc
  3251  04EF  3E01               	addlw	1
  3252  04F0  00C7               	movwf	??_isr+1
  3253  04F1  0879               	movf	_GLOBAL_sub_patterns_column_index,w
  3254  04F2  0746               	addwf	??_isr,w
  3255  04F3  0084               	movwf	4
  3256  04F4  0847               	movf	??_isr+1,w
  3257  04F5  1803               	skipnc
  3258  04F6  0A47               	incf	??_isr+1,w
  3259  04F7  00FF               	movwf	127
  3260  04F8  2100               	fcall	stringtab
  3261  04F9  3A00               	xorlw	0
  3262  04FA  1D03               	skipz
  3263  04FB  2D7B               	goto	i1l62
  3264                           
  3265                           ;interrupts.c: 76: GLOBAL_sub_patterns_column_index = 7;
  3266  04FC  3007               	movlw	7
  3267  04FD  00F9               	movwf	_GLOBAL_sub_patterns_column_index	;volatile
  3268  04FE  2D7B               	goto	i1l62
  3269  04FF                     i1l1796:	
  3270                           
  3271                           ;interrupts.c: 78: else {
  3272                           ;interrupts.c: 79: if (GLOBAL_sub_patterns_column_index > (7 - 1))
  3273  04FF  3007               	movlw	7
  3274  0500  0279               	subwf	_GLOBAL_sub_patterns_column_index,w	;volatile
  3275  0501  1C03               	skipc
  3276  0502  2D7B               	goto	i1l62
  3277                           
  3278                           ;interrupts.c: 80: {
  3279                           ;interrupts.c: 82: if (GLOBAL_combo_patterns_index_copy != GLOBAL_combo_patterns_index)
  3280  0503  0832               	movf	_GLOBAL_combo_patterns_index_copy,w	;volatile
  3281  0504  0678               	xorwf	_GLOBAL_combo_patterns_index,w	;volatile
  3282  0505  1903               	skipnz
  3283  0506  2D0A               	goto	i1l1804
  3284                           
  3285                           ;interrupts.c: 83: {
  3286                           ;interrupts.c: 84: GLOBAL_combo_patterns_column_index = 0;
  3287  0507  01F7               	clrf	_GLOBAL_combo_patterns_column_index	;volatile
  3288                           
  3289                           ;interrupts.c: 85: GLOBAL_combo_patterns_index_copy = GLOBAL_combo_patterns_index;
  3290  0508  0878               	movf	_GLOBAL_combo_patterns_index,w	;volatile
  3291  0509  00B2               	movwf	_GLOBAL_combo_patterns_index_copy	;volatile
  3292  050A                     i1l1804:	
  3293                           
  3294                           ;interrupts.c: 86: }
  3295                           ;interrupts.c: 88: if (bGLOBAL_END_OF_CYCLE_COND1)
  3296  050A  083C               	movf	_bGLOBAL_END_OF_CYCLE_COND1,w	;volatile
  3297  050B  1903               	btfsc	3,2
  3298  050C  2D0F               	goto	i1l1808
  3299                           
  3300                           ;interrupts.c: 89: bGLOBAL_END_OF_CYCLE_COND2 = 1;
  3301  050D  3001               	movlw	1
  3302  050E  00BD               	movwf	_bGLOBAL_END_OF_CYCLE_COND2	;volatile
  3303  050F                     i1l1808:	
  3304                           
  3305                           ;interrupts.c: 91: if (bGLOBAL_InPhase)
  3306  050F  083F               	movf	_bGLOBAL_InPhase,w	;volatile
  3307  0510  1903               	btfsc	3,2
  3308  0511  2D14               	goto	i1l1812
  3309                           
  3310                           ;interrupts.c: 92: GLOBAL_sub_patterns_index = ROM_COMBO_Patterns[GLOBAL_combo_patterns_
      +                          index][GLOBAL_combo_patterns_column_index];
  3311  0512  0877               	movf	_GLOBAL_combo_patterns_column_index,w	;volatile
  3312  0513  2D22               	goto	L5
  3313  0514                     i1l1812:	
  3314                           
  3315                           ;interrupts.c: 93: else
  3316                           ;interrupts.c: 94: {
  3317                           ;interrupts.c: 95: temp_data1 = GLOBAL_combo_patterns_column_index & 0x01;
  3318  0514  0877               	movf	_GLOBAL_combo_patterns_column_index,w	;volatile
  3319  0515  00F3               	movwf	isr@temp_data1	;volatile
  3320  0516  3001               	movlw	1
  3321  0517  05F3               	andwf	isr@temp_data1,f	;volatile
  3322                           
  3323                           ;interrupts.c: 96: if (temp_data1)
  3324  0518  0873               	movf	isr@temp_data1,w	;volatile
  3325  0519  1903               	btfsc	3,2
  3326  051A  2D1E               	goto	i1l1820
  3327                           
  3328                           ;interrupts.c: 97: temp_data1 = GLOBAL_combo_patterns_column_index - 1;
  3329  051B  0877               	movf	_GLOBAL_combo_patterns_column_index,w	;volatile
  3330  051C  3EFF               	addlw	255
  3331  051D  2D20               	goto	L6
  3332  051E                     i1l1820:	
  3333                           
  3334                           ;interrupts.c: 98: else
  3335                           ;interrupts.c: 99: temp_data1 = GLOBAL_combo_patterns_column_index + 1;
  3336  051E  0877               	movf	_GLOBAL_combo_patterns_column_index,w	;volatile
  3337  051F  3E01               	addlw	1
  3338  0520                     L6:	
  3339  0520  00F3               	movwf	isr@temp_data1	;volatile
  3340                           
  3341                           ;interrupts.c: 100: GLOBAL_sub_patterns_index = ROM_COMBO_Patterns[GLOBAL_combo_patterns
      +                          _index][temp_data1];
  3342  0521  0873               	movf	isr@temp_data1,w	;volatile
  3343  0522                     L5:	
  3344  0522  00C6               	movwf	??_isr
  3345  0523  01C7               	clrf	??_isr+1
  3346  0524  0878               	movf	_GLOBAL_combo_patterns_index,w	;volatile
  3347  0525  00C8               	movwf	??_isr+2
  3348  0526  30F0               	movlw	240
  3349  0527  01C9               	clrf	??_isr+3
  3350  0528  0EC8               	swapf	??_isr+2,f
  3351  0529  0EC9               	swapf	??_isr+3,f
  3352  052A  05C9               	andwf	??_isr+3,f
  3353  052B  0848               	movf	??_isr+2,w
  3354  052C  390F               	andlw	15
  3355  052D  04C9               	iorwf	??_isr+3,f
  3356  052E  30F0               	movlw	240
  3357  052F  05C8               	andwf	??_isr+2,f
  3358  0530  3012               	movlw	low (_ROM_COMBO_Patterns| (0+32768))
  3359  0531  00CA               	movwf	??_isr+4
  3360  0532  3081               	movlw	high (_ROM_COMBO_Patterns| (0+32768))
  3361  0533  00CB               	movwf	??_isr+5
  3362  0534  0848               	movf	??_isr+2,w
  3363  0535  074A               	addwf	??_isr+4,w
  3364  0536  00CC               	movwf	??_isr+6
  3365  0537  0849               	movf	??_isr+3,w
  3366  0538  1803               	skipnc
  3367  0539  0A49               	incf	??_isr+3,w
  3368  053A  074B               	addwf	??_isr+5,w
  3369  053B  00CD               	movwf	??_isr+7
  3370  053C  0846               	movf	??_isr,w
  3371  053D  074C               	addwf	??_isr+6,w
  3372  053E  0084               	movwf	4
  3373  053F  0847               	movf	??_isr+1,w
  3374  0540  1803               	skipnc
  3375  0541  0A47               	incf	??_isr+1,w
  3376  0542  074D               	addwf	??_isr+7,w
  3377  0543  00FF               	movwf	127
  3378  0544  2100               	fcall	stringtab
  3379  0545  00B3               	movwf	_GLOBAL_sub_patterns_index	;volatile
  3380                           
  3381                           ;interrupts.c: 101: }
  3382                           ;interrupts.c: 102: GLOBAL_combo_patterns_column_index++;
  3383  0546  0AF7               	incf	_GLOBAL_combo_patterns_column_index,f	;volatile
  3384                           
  3385                           ;interrupts.c: 103: if ((GLOBAL_combo_patterns_column_index > (16 - 1)) || (ROM_COMBO_Pa
      +                          tterns[GLOBAL_combo_patterns_index][GLOBAL_combo_patterns_column_index] == 99))
  3386  0547  3010               	movlw	16
  3387  0548  0277               	subwf	_GLOBAL_combo_patterns_column_index,w	;volatile
  3388  0549  1803               	skipnc
  3389  054A  2D72               	goto	i1l1830
  3390  054B  0877               	movf	_GLOBAL_combo_patterns_column_index,w	;volatile
  3391  054C  00C6               	movwf	??_isr
  3392  054D  01C7               	clrf	??_isr+1
  3393  054E  0878               	movf	_GLOBAL_combo_patterns_index,w	;volatile
  3394  054F  00C8               	movwf	??_isr+2
  3395  0550  30F0               	movlw	240
  3396  0551  01C9               	clrf	??_isr+3
  3397  0552  0EC8               	swapf	??_isr+2,f
  3398  0553  0EC9               	swapf	??_isr+3,f
  3399  0554  05C9               	andwf	??_isr+3,f
  3400  0555  0848               	movf	??_isr+2,w
  3401  0556  390F               	andlw	15
  3402  0557  04C9               	iorwf	??_isr+3,f
  3403  0558  30F0               	movlw	240
  3404  0559  05C8               	andwf	??_isr+2,f
  3405  055A  3012               	movlw	low (_ROM_COMBO_Patterns| (0+32768))
  3406  055B  00CA               	movwf	??_isr+4
  3407  055C  3081               	movlw	high (_ROM_COMBO_Patterns| (0+32768))
  3408  055D  00CB               	movwf	??_isr+5
  3409  055E  0848               	movf	??_isr+2,w
  3410  055F  074A               	addwf	??_isr+4,w
  3411  0560  00CC               	movwf	??_isr+6
  3412  0561  0849               	movf	??_isr+3,w
  3413  0562  1803               	skipnc
  3414  0563  0A49               	incf	??_isr+3,w
  3415  0564  074B               	addwf	??_isr+5,w
  3416  0565  00CD               	movwf	??_isr+7
  3417  0566  0846               	movf	??_isr,w
  3418  0567  074C               	addwf	??_isr+6,w
  3419  0568  0084               	movwf	4
  3420  0569  0847               	movf	??_isr+1,w
  3421  056A  1803               	skipnc
  3422  056B  0A47               	incf	??_isr+1,w
  3423  056C  074D               	addwf	??_isr+7,w
  3424  056D  00FF               	movwf	127
  3425  056E  2100               	fcall	stringtab
  3426  056F  3A63               	xorlw	99
  3427  0570  1D03               	skipz
  3428  0571  2D7A               	goto	i1l1838
  3429  0572                     i1l1830:	
  3430                           
  3431                           ;interrupts.c: 104: {
  3432                           ;interrupts.c: 105: if (bGLOBAL_STEADY_ON)
  3433  0572  0843               	movf	_bGLOBAL_STEADY_ON,w	;volatile
  3434  0573  1903               	btfsc	3,2
  3435  0574  2D77               	goto	i1l1834
  3436                           
  3437                           ;interrupts.c: 106: GLOBAL_combo_patterns_column_index--;
  3438  0575  03F7               	decf	_GLOBAL_combo_patterns_column_index,f	;volatile
  3439  0576  2D7A               	goto	i1l1838
  3440  0577                     i1l1834:	
  3441                           
  3442                           ;interrupts.c: 107: else
  3443                           ;interrupts.c: 108: {
  3444                           ;interrupts.c: 109: GLOBAL_combo_patterns_column_index = 0;
  3445  0577  01F7               	clrf	_GLOBAL_combo_patterns_column_index	;volatile
  3446                           
  3447                           ;interrupts.c: 110: bGLOBAL_END_OF_CYCLE_COND1 = 1;
  3448  0578  3001               	movlw	1
  3449  0579  00BC               	movwf	_bGLOBAL_END_OF_CYCLE_COND1	;volatile
  3450  057A                     i1l1838:	
  3451                           
  3452                           ;interrupts.c: 111: }
  3453                           ;interrupts.c: 112: }
  3454                           ;interrupts.c: 113: GLOBAL_sub_patterns_column_index = 0;
  3455  057A  01F9               	clrf	_GLOBAL_sub_patterns_column_index	;volatile
  3456  057B                     i1l62:	
  3457                           
  3458                           ;interrupts.c: 114: }
  3459                           ;interrupts.c: 115: }
  3460                           ;interrupts.c: 117: if ((GLOBAL_sub_patterns_timer < 6) && bGLOBAL_END_OF_CYCLE_COND1 &&
      +                           (GPIObits.GP4) && (GLOBAL_SYNC_PULSE_Counter == 0) && bGLOBAL_END_OF_CYCLE_COND2)
  3461  057B  3006               	movlw	6
  3462  057C  0235               	subwf	_GLOBAL_sub_patterns_timer,w	;volatile
  3463  057D  1803               	skipnc
  3464  057E  2D90               	goto	i1l1852
  3465  057F  083C               	movf	_bGLOBAL_END_OF_CYCLE_COND1,w	;volatile
  3466  0580  1D03               	btfss	3,2
  3467  0581  1E05               	btfss	5,4	;volatile
  3468  0582  2D90               	goto	i1l1852
  3469  0583  0876               	movf	_GLOBAL_SYNC_PULSE_Counter,w	;volatile
  3470  0584  1D03               	btfss	3,2
  3471  0585  2D90               	goto	i1l1852
  3472  0586  083D               	movf	_bGLOBAL_END_OF_CYCLE_COND2,w	;volatile
  3473  0587  1903               	btfsc	3,2
  3474  0588  2D90               	goto	i1l1852
  3475                           
  3476                           ;interrupts.c: 118: {
  3477                           ;interrupts.c: 119: OUTPUT_BUFFER = OUTPUT_BUFFER | 0x20;
  3478  0589  0836               	movf	_OUTPUT_BUFFER,w	;volatile
  3479  058A  3820               	iorlw	32
  3480  058B  00B6               	movwf	_OUTPUT_BUFFER	;volatile
  3481                           
  3482                           ;interrupts.c: 120: bGLOBAL_SYNC_SENT = 1;
  3483  058C  3001               	movlw	1
  3484  058D  00C5               	movwf	_bGLOBAL_SYNC_SENT	;volatile
  3485                           
  3486                           ;interrupts.c: 121: bGLOBAL_END_OF_CYCLE_COND1 = 0;
  3487  058E  01BC               	clrf	_bGLOBAL_END_OF_CYCLE_COND1	;volatile
  3488                           
  3489                           ;interrupts.c: 122: bGLOBAL_END_OF_CYCLE_COND2 = 0;
  3490  058F  01BD               	clrf	_bGLOBAL_END_OF_CYCLE_COND2	;volatile
  3491  0590                     i1l1852:	
  3492                           
  3493                           ;interrupts.c: 123: }
  3494                           ;interrupts.c: 125: if (!bGLOBAL_SYNC_SENT)
  3495  0590  0845               	movf	_bGLOBAL_SYNC_SENT,w	;volatile
  3496  0591  1903               	btfsc	3,2
  3497                           
  3498                           ;interrupts.c: 126: {
  3499                           ;interrupts.c: 127: if ((!(GPIObits.GP4)) && (GLOBAL_SYNC_PULSE_Counter < 200))
  3500  0592  1A05               	btfsc	5,4	;volatile
  3501  0593  2D99               	goto	i1l1860
  3502  0594  30C8               	movlw	200
  3503  0595  0276               	subwf	_GLOBAL_SYNC_PULSE_Counter,w	;volatile
  3504  0596  1803               	skipnc
  3505  0597  2D99               	goto	i1l1860
  3506                           
  3507                           ;interrupts.c: 128: GLOBAL_SYNC_PULSE_Counter++;
  3508  0598  0AF6               	incf	_GLOBAL_SYNC_PULSE_Counter,f	;volatile
  3509  0599                     i1l1860:	
  3510                           
  3511                           ;interrupts.c: 129: }
  3512                           ;interrupts.c: 131: if ((GLOBAL_sub_patterns_timer < 3) && bGLOBAL_SYNC_SENT)
  3513  0599  3003               	movlw	3
  3514  059A  0235               	subwf	_GLOBAL_sub_patterns_timer,w	;volatile
  3515  059B  1803               	skipnc
  3516  059C  2DA2               	goto	i1l1868
  3517  059D  0845               	movf	_bGLOBAL_SYNC_SENT,w	;volatile
  3518  059E  1903               	btfsc	3,2
  3519  059F  2DA2               	goto	i1l1868
  3520                           
  3521                           ;interrupts.c: 132: {
  3522                           ;interrupts.c: 133: OUTPUT_BUFFER = OUTPUT_BUFFER & 0xDF;
  3523  05A0  12B6               	bcf	_OUTPUT_BUFFER,5	;volatile
  3524                           
  3525                           ;interrupts.c: 134: bGLOBAL_SYNC_SENT = 0;
  3526  05A1  01C5               	clrf	_bGLOBAL_SYNC_SENT	;volatile
  3527  05A2                     i1l1868:	
  3528                           
  3529                           ;interrupts.c: 135: }
  3530                           ;interrupts.c: 137: if ((GLOBAL_SYNC_PULSE_Counter > 1) && (GLOBAL_SYNC_PULSE_Counter < 
      +                          7) && (GPIObits.GP4) && !bGLOBAL_STEADY_ON)
  3531  05A2  3002               	movlw	2
  3532  05A3  0276               	subwf	_GLOBAL_SYNC_PULSE_Counter,w	;volatile
  3533  05A4  1C03               	skipc
  3534  05A5  2DB5               	goto	i1l1888
  3535  05A6  3007               	movlw	7
  3536  05A7  0276               	subwf	_GLOBAL_SYNC_PULSE_Counter,w	;volatile
  3537  05A8  1C03               	btfss	3,0
  3538  05A9  1E05               	btfss	5,4	;volatile
  3539  05AA  2DB5               	goto	i1l1888
  3540  05AB  0843               	movf	_bGLOBAL_STEADY_ON,w	;volatile
  3541  05AC  1D03               	btfss	3,2
  3542  05AD  2DB5               	goto	i1l1888
  3543                           
  3544                           ;interrupts.c: 138: {
  3545                           ;interrupts.c: 139: GLOBAL_sub_patterns_column_index = 7;
  3546  05AE  3007               	movlw	7
  3547  05AF  00F9               	movwf	_GLOBAL_sub_patterns_column_index	;volatile
  3548                           
  3549                           ;interrupts.c: 140: GLOBAL_sub_patterns_timer =0;
  3550  05B0  01B5               	clrf	_GLOBAL_sub_patterns_timer	;volatile
  3551                           
  3552                           ;interrupts.c: 141: GLOBAL_combo_patterns_column_index = 0;
  3553  05B1  01F7               	clrf	_GLOBAL_combo_patterns_column_index	;volatile
  3554                           
  3555                           ;interrupts.c: 142: GLOBAL_SYNC_PULSE_Counter = 0;
  3556  05B2  01F6               	clrf	_GLOBAL_SYNC_PULSE_Counter	;volatile
  3557                           
  3558                           ;interrupts.c: 143: bGLOBAL_END_OF_CYCLE_COND1 = 0;
  3559  05B3  01BC               	clrf	_bGLOBAL_END_OF_CYCLE_COND1	;volatile
  3560                           
  3561                           ;interrupts.c: 144: bGLOBAL_END_OF_CYCLE_COND2 = 0;
  3562  05B4  01BD               	clrf	_bGLOBAL_END_OF_CYCLE_COND2	;volatile
  3563  05B5                     i1l1888:	
  3564                           
  3565                           ;interrupts.c: 145: }
  3566                           ;interrupts.c: 147: if ((GPIObits.GP4) && ((GLOBAL_SYNC_PULSE_Counter > 6) || (GLOBAL_SY
      +                          NC_PULSE_Counter < 2)))
  3567  05B5  1E05               	btfss	5,4	;volatile
  3568  05B6  2DC0               	goto	i1l1896
  3569  05B7  3007               	movlw	7
  3570  05B8  0276               	subwf	_GLOBAL_SYNC_PULSE_Counter,w	;volatile
  3571  05B9  1803               	skipnc
  3572  05BA  2DBF               	goto	i1l1894
  3573  05BB  3002               	movlw	2
  3574  05BC  0276               	subwf	_GLOBAL_SYNC_PULSE_Counter,w	;volatile
  3575  05BD  1803               	skipnc
  3576  05BE  2DC0               	goto	i1l1896
  3577  05BF                     i1l1894:	
  3578                           
  3579                           ;interrupts.c: 148: GLOBAL_SYNC_PULSE_Counter = 0;
  3580  05BF  01F6               	clrf	_GLOBAL_SYNC_PULSE_Counter	;volatile
  3581  05C0                     i1l1896:	
  3582                           
  3583                           ;interrupts.c: 150: if ((OUTPUT_BUFFER_COPY - OUTPUT_BUFFER) != 0)
  3584  05C0  0837               	movf	_OUTPUT_BUFFER_COPY,w	;volatile
  3585  05C1  00C6               	movwf	??_isr
  3586  05C2  01C7               	clrf	??_isr+1
  3587  05C3  0847               	movf	??_isr+1,w
  3588  05C4  00C9               	movwf	??_isr+3
  3589  05C5  0836               	movf	_OUTPUT_BUFFER,w	;volatile
  3590  05C6  0246               	subwf	??_isr,w
  3591  05C7  00C8               	movwf	??_isr+2
  3592  05C8  1C03               	skipc
  3593  05C9  03C9               	decf	??_isr+3,f
  3594  05CA  0449               	iorwf	??_isr+3,w
  3595  05CB  1903               	btfsc	3,2
  3596  05CC  2DCF               	goto	i1l83
  3597                           
  3598                           ;interrupts.c: 151: bGLOBAL_OUTPUT_BUFFER_CHANGED = 1;
  3599  05CD  3001               	movlw	1
  3600  05CE  00C2               	movwf	_bGLOBAL_OUTPUT_BUFFER_CHANGED	;volatile
  3601  05CF                     i1l83:	
  3602                           
  3603                           ;interrupts.c: 152: OUTPUT_BUFFER_COPY = OUTPUT_BUFFER;
  3604  05CF  0836               	movf	_OUTPUT_BUFFER,w	;volatile
  3605  05D0  00B7               	movwf	_OUTPUT_BUFFER_COPY	;volatile
  3606                           
  3607                           ;interrupts.c: 153: GLOBAL_Dummy_Counter++;
  3608  05D1  0AA6               	incf	_GLOBAL_Dummy_Counter,f	;volatile
  3609                           
  3610                           ;interrupts.c: 154: GLOBAL_Dummy_Counter2++;
  3611  05D2  0AA7               	incf	_GLOBAL_Dummy_Counter2,f	;volatile
  3612                           
  3613                           ;interrupts.c: 155: if (GLOBAL_sub_patterns_timer > 0)
  3614  05D3  0835               	movf	_GLOBAL_sub_patterns_timer,w	;volatile
  3615  05D4  1D03               	btfss	3,2
  3616                           
  3617                           ;interrupts.c: 156: GLOBAL_sub_patterns_timer--;
  3618  05D5  03B5               	decf	_GLOBAL_sub_patterns_timer,f	;volatile
  3619                           
  3620                           ;interrupts.c: 157: Read_Mode_Input();
  3621  05D6  27B0               	fcall	_Read_Mode_Input
  3622                           
  3623                           ;interrupts.c: 158: INTCONbits.TMR0IF = 0;
  3624  05D7  110B               	bcf	11,2	;volatile
  3625  05D8                     i1l85:	
  3626  05D8  0851               	movf	??_isr+11,w
  3627  05D9  00FF               	movwf	127
  3628  05DA  0850               	movf	??_isr+10,w
  3629  05DB  008A               	movwf	10
  3630  05DC  084F               	movf	??_isr+9,w
  3631  05DD  0084               	movwf	4
  3632  05DE  0E4E               	swapf	(??_isr+8)^0,w
  3633  05DF  0083               	movwf	3
  3634  05E0  0EFE               	swapf	126,f
  3635  05E1  0E7E               	swapf	126,w
  3636  05E2  0009               	retfie
  3637  05E3                     __end_of_isr:	
  3638                           
  3639                           	psect	intentry
  3640  0004                     __pintentry:	
  3641                           ;incstack = 0
  3642                           ; Regs used in _isr: [wreg-fsr0h+status,2+status,0+btemp+1+pclath+cstack]
  3643                           
  3644  0004                     interrupt_function:	
  3645  007E                     saved_w	set	btemp
  3646  0004  00FE               	movwf	btemp
  3647  0005  0E03               	swapf	3,w
  3648  0006  1283               	bcf	3,5	;RP0=0, select bank0
  3649  0007  00CE               	movwf	??_isr+8
  3650  0008  0804               	movf	4,w
  3651  0009  00CF               	movwf	??_isr+9
  3652  000A  080A               	movf	10,w
  3653  000B  00D0               	movwf	??_isr+10
  3654  000C  087F               	movf	btemp+1,w
  3655  000D  00D1               	movwf	??_isr+11
  3656  000E  2CA6               	ljmp	_isr
  3657                           
  3658                           	psect	text16
  3659  06C0                     __ptext16:	
  3660 ;; *************** function i1_SetOUTPUT *****************
  3661 ;; Defined at:
  3662 ;;		line 409 in file "main.c"
  3663 ;; Parameters:    Size  Location     Type
  3664 ;;		None
  3665 ;; Auto vars:     Size  Location     Type
  3666 ;;  SetOUTPUT       1    1[COMMON] unsigned char 
  3667 ;; Return value:  Size  Location     Type
  3668 ;;                  1    wreg      void 
  3669 ;; Registers used:
  3670 ;;		wreg, status,2, status,0
  3671 ;; Tracked objects:
  3672 ;;		On entry : 100/0
  3673 ;;		On exit  : 100/0
  3674 ;;		Unchanged: 0/0
  3675 ;; Data sizes:     COMMON   BANK0   BANK1
  3676 ;;      Params:         0       0       0
  3677 ;;      Locals:         1       0       0
  3678 ;;      Temps:          1       0       0
  3679 ;;      Totals:         2       0       0
  3680 ;;Total ram usage:        2 bytes
  3681 ;; Hardware stack levels used:    1
  3682 ;; This function calls:
  3683 ;;		Nothing
  3684 ;; This function is called by:
  3685 ;;		_isr
  3686 ;; This function uses a non-reentrant model
  3687 ;;
  3688                           
  3689                           
  3690                           ;psect for function i1_SetOUTPUT
  3691  06C0                     i1_SetOUTPUT:	
  3692                           
  3693                           ;main.c: 411: unsigned char temporaryGPIO = 0x00;
  3694                           
  3695                           ;incstack = 0
  3696                           ; Regs used in i1_SetOUTPUT: [wreg+status,2+status,0]
  3697  06C0  01F1               	clrf	i1SetOUTPUT@temporaryGPIO
  3698                           
  3699                           ;main.c: 413: if (bGLOBAL_ENABLE_LEDS)
  3700  06C1  083B               	movf	_bGLOBAL_ENABLE_LEDS,w	;volatile
  3701  06C2  1903               	btfsc	3,2
  3702  06C3  2ED9               	goto	i1l1750
  3703                           
  3704                           ;main.c: 414: {
  3705                           ;main.c: 415: temporaryGPIO = OUTPUT_BUFFER & GLOBAL_CHANNELS_EN;
  3706  06C4  0836               	movf	_OUTPUT_BUFFER,w	;volatile
  3707  06C5  00F1               	movwf	i1SetOUTPUT@temporaryGPIO
  3708  06C6  0824               	movf	_GLOBAL_CHANNELS_EN,w	;volatile
  3709  06C7  05F1               	andwf	i1SetOUTPUT@temporaryGPIO,f
  3710                           
  3711                           ;main.c: 417: if((temporaryGPIO & 0x03) == 0x01 || (temporaryGPIO & 0x03) == 0x02)
  3712  06C8  3003               	movlw	3
  3713  06C9  0571               	andwf	i1SetOUTPUT@temporaryGPIO,w
  3714  06CA  00F0               	movwf	??i1_SetOUTPUT
  3715  06CB  0370               	decf	??i1_SetOUTPUT,w
  3716  06CC  3003               	movlw	3
  3717  06CD  1903               	btfsc	3,2
  3718  06CE  2ED5               	goto	L7
  3719  06CF  0571               	andwf	i1SetOUTPUT@temporaryGPIO,w
  3720  06D0  00F0               	movwf	??i1_SetOUTPUT
  3721  06D1  3A02               	xorlw	2
  3722  06D2  1D03               	btfss	3,2
  3723  06D3  2ED6               	goto	i1l1748
  3724                           
  3725                           ;main.c: 418: temporaryGPIO ^= 0x03;
  3726  06D4  3003               	movlw	3
  3727  06D5                     L7:	
  3728  06D5  06F1               	xorwf	i1SetOUTPUT@temporaryGPIO,f
  3729  06D6                     i1l1748:	
  3730                           
  3731                           ;main.c: 420: GPIO = temporaryGPIO;
  3732  06D6  0871               	movf	i1SetOUTPUT@temporaryGPIO,w
  3733  06D7  0085               	movwf	5	;volatile
  3734                           
  3735                           ;main.c: 421: }
  3736  06D8  0008               	return
  3737  06D9                     i1l1750:	
  3738                           
  3739                           ;main.c: 422: else
  3740                           ;main.c: 423: {
  3741                           ;main.c: 424: if (bGLOBAL_IS_PROGRAMMING)
  3742  06D9  083E               	movf	_bGLOBAL_IS_PROGRAMMING,w	;volatile
  3743  06DA  1903               	btfsc	3,2
  3744  06DB  2EE8               	goto	i1l1760
  3745                           
  3746                           ;main.c: 425: {
  3747                           ;main.c: 426: if (!bGLOBAL_CHANGING_PATTERN)
  3748  06DC  0838               	movf	_bGLOBAL_CHANGING_PATTERN,w	;volatile
  3749  06DD  1D03               	btfss	3,2
  3750  06DE  0008               	return
  3751                           
  3752                           ;main.c: 427: {
  3753                           ;main.c: 428: if (bGLOBAL_InPhase)
  3754  06DF  083F               	movf	_bGLOBAL_InPhase,w	;volatile
  3755  06E0  1903               	btfsc	3,2
  3756  06E1  2EE5               	goto	i1l1758
  3757                           
  3758                           ;main.c: 429: GPIO = 0x23;
  3759  06E2  3023               	movlw	35
  3760  06E3  0085               	movwf	5	;volatile
  3761  06E4  0008               	return
  3762  06E5                     i1l1758:	
  3763                           
  3764                           ;main.c: 430: else
  3765                           ;main.c: 431: GPIO = 0x21;
  3766  06E5  3021               	movlw	33
  3767  06E6  0085               	movwf	5	;volatile
  3768  06E7  0008               	return
  3769  06E8                     i1l1760:	
  3770                           
  3771                           ;main.c: 434: {
  3772                           ;main.c: 435: GPIO = 0;
  3773  06E8  0185               	clrf	5	;volatile
  3774  06E9  0008               	return
  3775  06EA                     __end_ofi1_SetOUTPUT:	
  3776                           
  3777                           	psect	text17
  3778  06EA                     __ptext17:	
  3779 ;; *************** function ___bmul *****************
  3780 ;; Defined at:
  3781 ;;		line 4 in file "C:\Program Files (x86)\Microchip\xc8\v1.38\sources\common\Umul8.c"
  3782 ;; Parameters:    Size  Location     Type
  3783 ;;  multiplier      1    wreg     unsigned char 
  3784 ;;  multiplicand    1    0[COMMON] unsigned char 
  3785 ;; Auto vars:     Size  Location     Type
  3786 ;;  multiplier      1    2[COMMON] unsigned char 
  3787 ;;  product         1    1[COMMON] unsigned char 
  3788 ;; Return value:  Size  Location     Type
  3789 ;;                  1    wreg      unsigned char 
  3790 ;; Registers used:
  3791 ;;		wreg, status,2, status,0
  3792 ;; Tracked objects:
  3793 ;;		On entry : 100/0
  3794 ;;		On exit  : 100/0
  3795 ;;		Unchanged: 100/0
  3796 ;; Data sizes:     COMMON   BANK0   BANK1
  3797 ;;      Params:         1       0       0
  3798 ;;      Locals:         2       0       0
  3799 ;;      Temps:          0       0       0
  3800 ;;      Totals:         3       0       0
  3801 ;;Total ram usage:        3 bytes
  3802 ;; Hardware stack levels used:    1
  3803 ;; This function calls:
  3804 ;;		Nothing
  3805 ;; This function is called by:
  3806 ;;		_isr
  3807 ;; This function uses a non-reentrant model
  3808 ;;
  3809                           
  3810                           
  3811                           ;psect for function ___bmul
  3812  06EA                     ___bmul:	
  3813                           
  3814                           ;incstack = 0
  3815                           ; Regs used in ___bmul: [wreg+status,2+status,0]
  3816                           ;___bmul@multiplier stored from wreg
  3817  06EA  00F2               	movwf	___bmul@multiplier
  3818  06EB  01F1               	clrf	___bmul@product
  3819  06EC  0870               	movf	___bmul@multiplicand,w
  3820  06ED  1872               	btfsc	___bmul@multiplier,0
  3821  06EE  07F1               	addwf	___bmul@product,f
  3822  06EF  1003               	clrc
  3823  06F0  0DF0               	rlf	___bmul@multiplicand,f
  3824  06F1  0870               	movf	___bmul@multiplicand,w
  3825  06F2  18F2               	btfsc	___bmul@multiplier,1
  3826  06F3  07F1               	addwf	___bmul@product,f
  3827  06F4  1003               	clrc
  3828  06F5  0DF0               	rlf	___bmul@multiplicand,f
  3829  06F6  0870               	movf	___bmul@multiplicand,w
  3830  06F7  1972               	btfsc	___bmul@multiplier,2
  3831  06F8  07F1               	addwf	___bmul@product,f
  3832  06F9  1003               	clrc
  3833  06FA  0DF0               	rlf	___bmul@multiplicand,f
  3834  06FB  0870               	movf	___bmul@multiplicand,w
  3835  06FC  19F2               	btfsc	___bmul@multiplier,3
  3836  06FD  07F1               	addwf	___bmul@product,f
  3837  06FE  1003               	clrc
  3838  06FF  0DF0               	rlf	___bmul@multiplicand,f
  3839  0700  0870               	movf	___bmul@multiplicand,w
  3840  0701  1A72               	btfsc	___bmul@multiplier,4
  3841  0702  07F1               	addwf	___bmul@product,f
  3842  0703  1003               	clrc
  3843  0704  0DF0               	rlf	___bmul@multiplicand,f
  3844  0705  0870               	movf	___bmul@multiplicand,w
  3845  0706  1AF2               	btfsc	___bmul@multiplier,5
  3846  0707  07F1               	addwf	___bmul@product,f
  3847  0708  1003               	clrc
  3848  0709  0DF0               	rlf	___bmul@multiplicand,f
  3849  070A  0870               	movf	___bmul@multiplicand,w
  3850  070B  1B72               	btfsc	___bmul@multiplier,6
  3851  070C  07F1               	addwf	___bmul@product,f
  3852  070D  1003               	clrc
  3853  070E  0DF0               	rlf	___bmul@multiplicand,f
  3854  070F  0870               	movf	___bmul@multiplicand,w
  3855  0710  1BF2               	btfsc	___bmul@multiplier,7
  3856  0711  07F1               	addwf	___bmul@product,f
  3857  0712  0871               	movf	___bmul@product,w
  3858  0713  0008               	return
  3859  0714                     __end_of___bmul:	
  3860                           
  3861                           	psect	text18
  3862  07B0                     __ptext18:	
  3863 ;; *************** function _Read_Mode_Input *****************
  3864 ;; Defined at:
  3865 ;;		line 505 in file "main.c"
  3866 ;; Parameters:    Size  Location     Type
  3867 ;;		None
  3868 ;; Auto vars:     Size  Location     Type
  3869 ;;		None
  3870 ;; Return value:  Size  Location     Type
  3871 ;;                  1    wreg      void 
  3872 ;; Registers used:
  3873 ;;		wreg, status,2, status,0
  3874 ;; Tracked objects:
  3875 ;;		On entry : 100/0
  3876 ;;		On exit  : 100/0
  3877 ;;		Unchanged: 0/0
  3878 ;; Data sizes:     COMMON   BANK0   BANK1
  3879 ;;      Params:         0       0       0
  3880 ;;      Locals:         0       0       0
  3881 ;;      Temps:          0       0       0
  3882 ;;      Totals:         0       0       0
  3883 ;;Total ram usage:        0 bytes
  3884 ;; Hardware stack levels used:    1
  3885 ;; This function calls:
  3886 ;;		Nothing
  3887 ;; This function is called by:
  3888 ;;		_isr
  3889 ;; This function uses a non-reentrant model
  3890 ;;
  3891                           
  3892                           
  3893                           ;psect for function _Read_Mode_Input
  3894  07B0                     _Read_Mode_Input:	
  3895                           
  3896                           ;main.c: 507: if ((GPIObits.GP2))
  3897                           
  3898                           ;incstack = 0
  3899                           ; Regs used in _Read_Mode_Input: [wreg+status,2+status,0]
  3900  07B0  1D05               	btfss	5,2	;volatile
  3901  07B1  2FBC               	goto	i1l1574
  3902                           
  3903                           ;main.c: 508: { GLOBAL_MODE1_LOW_counter = 0;
  3904  07B2  01A8               	clrf	_GLOBAL_MODE1_LOW_counter	;volatile
  3905                           
  3906                           ;main.c: 509: if (GLOBAL_MODE1_counter < 4) GLOBAL_MODE1_counter++;
  3907  07B3  3004               	movlw	4
  3908  07B4  0229               	subwf	_GLOBAL_MODE1_counter,w	;volatile
  3909  07B5  1803               	skipnc
  3910  07B6  2FB9               	goto	i1l1572
  3911  07B7  0AA9               	incf	_GLOBAL_MODE1_counter,f	;volatile
  3912  07B8  2FC4               	goto	i1l1582
  3913  07B9                     i1l1572:	
  3914                           
  3915                           ;main.c: 510: else bGLOBAL_MODE1_PRESSED = 1;
  3916  07B9  3001               	movlw	1
  3917  07BA  00C0               	movwf	_bGLOBAL_MODE1_PRESSED	;volatile
  3918  07BB  2FC4               	goto	i1l1582
  3919  07BC                     i1l1574:	
  3920                           
  3921                           ;main.c: 512: GLOBAL_MODE1_counter = 0;
  3922  07BC  01A9               	clrf	_GLOBAL_MODE1_counter	;volatile
  3923                           
  3924                           ;main.c: 513: if (GLOBAL_MODE1_LOW_counter < 4) GLOBAL_MODE1_LOW_counter++;
  3925  07BD  3004               	movlw	4
  3926  07BE  0228               	subwf	_GLOBAL_MODE1_LOW_counter,w	;volatile
  3927  07BF  1803               	skipnc
  3928  07C0  2FC3               	goto	i1l1580
  3929  07C1  0AA8               	incf	_GLOBAL_MODE1_LOW_counter,f	;volatile
  3930  07C2  2FC4               	goto	i1l1582
  3931  07C3                     i1l1580:	
  3932                           
  3933                           ;main.c: 514: else bGLOBAL_MODE1_PRESSED = 0;
  3934  07C3  01C0               	clrf	_bGLOBAL_MODE1_PRESSED	;volatile
  3935  07C4                     i1l1582:	
  3936                           
  3937                           ;main.c: 515: }
  3938                           ;main.c: 525: if (!(GPIObits.GP4))
  3939  07C4  1A05               	btfsc	5,4	;volatile
  3940  07C5  2FCC               	goto	i1l1590
  3941                           
  3942                           ;main.c: 526: { GLOBAL_SYNC_Line_LOW_counter = 0;
  3943  07C6  01AC               	clrf	_GLOBAL_SYNC_Line_LOW_counter	;volatile
  3944                           
  3945                           ;main.c: 527: if (GLOBAL_SYNC_Line_counter < 9) GLOBAL_SYNC_Line_counter++;
  3946  07C7  3009               	movlw	9
  3947  07C8  022D               	subwf	_GLOBAL_SYNC_Line_counter,w	;volatile
  3948  07C9  1C03               	btfss	3,0
  3949  07CA  0AAD               	incf	_GLOBAL_SYNC_Line_counter,f	;volatile
  3950  07CB  0008               	return
  3951  07CC                     i1l1590:	
  3952                           
  3953                           ;main.c: 530: GLOBAL_SYNC_Line_counter = 0;
  3954  07CC  01AD               	clrf	_GLOBAL_SYNC_Line_counter	;volatile
  3955                           
  3956                           ;main.c: 531: if (GLOBAL_SYNC_Line_LOW_counter < 7) GLOBAL_SYNC_Line_LOW_counter++;
  3957  07CD  3007               	movlw	7
  3958  07CE  022C               	subwf	_GLOBAL_SYNC_Line_LOW_counter,w	;volatile
  3959  07CF  1803               	skipnc
  3960  07D0  2FD3               	goto	i1l1596
  3961  07D1  0AAC               	incf	_GLOBAL_SYNC_Line_LOW_counter,f	;volatile
  3962  07D2  0008               	return
  3963  07D3                     i1l1596:	
  3964                           
  3965                           ;main.c: 532: else bGLOBAL_SYNC_Line_PRESSED = 0;
  3966  07D3  01C4               	clrf	_bGLOBAL_SYNC_Line_PRESSED	;volatile
  3967  07D4  0008               	return
  3968  07D5                     __end_of_Read_Mode_Input:	
  3969  007E                     btemp	set	126	;btemp
  3970  007E                     wtemp	set	126
  3971  007E                     wtemp0	set	126
  3972  0080                     wtemp1	set	128
  3973  0082                     wtemp2	set	130
  3974  0084                     wtemp3	set	132
  3975  0086                     wtemp4	set	134
  3976  0088                     wtemp5	set	136
  3977  007F                     wtemp6	set	127
  3978  007E                     ttemp	set	126
  3979  007E                     ttemp0	set	126
  3980  0081                     ttemp1	set	129
  3981  0084                     ttemp2	set	132
  3982  0087                     ttemp3	set	135
  3983  007F                     ttemp4	set	127
  3984  007E                     ltemp	set	126
  3985  007E                     ltemp0	set	126
  3986  0082                     ltemp1	set	130
  3987  0086                     ltemp2	set	134
  3988  0080                     ltemp3	set	128


Data Sizes:
    Strings     0
    Constant    916
    Data        0
    BSS         47
    Persistent  0
    Stack       0

Auto Spaces:
    Space          Size  Autos    Used
    COMMON           14      6      10
    BANK0            80     21      59
    BANK1            32      0       0

Pointer List with Targets:

    __ctoee@addr	PTR eeprom void  size(1) Largest target is 2
		 -> EEprom_InPhase(EEDATA[2]), EEprom_mode(EEDATA[2]), EEprom_Written_Flag(EEDATA[1]), 

    __eetoc@addr	PTR eeprom void  size(1) Largest target is 2
		 -> EEprom_InPhase(EEDATA[2]), EEprom_mode(EEDATA[2]), EEprom_Written_Flag(EEDATA[1]), 

    memcpyee@to	PTR eeprom unsigned char  size(1) Largest target is 2
		 -> EEprom_InPhase(EEDATA[2]), EEprom_mode(EEDATA[2]), EEprom_Written_Flag(EEDATA[1]), 

    memcpyee@from	PTR const unsigned char  size(1) Largest target is 4
		 -> __fltoee@data(COMMON[3]), __fttoee@data(COMMON[3]), __ltoee@data(COMMON[4]), __mtoee@data(COMMON[3]), 
		 -> __itoee@data(COMMON[2]), __ctoee@data(BANK0[1]), 

    memcpyee@ptr	PTR const unsigned char  size(1) Largest target is 4
		 -> __fltoee@data(COMMON[3]), __fttoee@data(COMMON[3]), __ltoee@data(COMMON[4]), __mtoee@data(COMMON[3]), 
		 -> __itoee@data(COMMON[2]), __ctoee@data(BANK0[1]), 

    eecpymem@from	PTR eeprom unsigned char  size(1) Largest target is 2
		 -> EEprom_InPhase(EEDATA[2]), EEprom_mode(EEDATA[2]), EEprom_Written_Flag(EEDATA[1]), 

    eecpymem@to	PTR volatile unsigned char  size(1) Largest target is 4
		 -> __eetofl@data(COMMON[3]), __eetoft@data(COMMON[3]), __eetol@data(COMMON[4]), __eetom@data(COMMON[3]), 
		 -> __eetoi@data(COMMON[2]), __eetoc@data(BANK0[1]), 

    eecpymem@cp	PTR volatile unsigned char  size(1) Largest target is 4
		 -> __eetofl@data(COMMON[3]), __eetoft@data(COMMON[3]), __eetol@data(COMMON[4]), __eetom@data(COMMON[3]), 
		 -> __eetoi@data(COMMON[2]), __eetoc@data(BANK0[1]), 


Critical Paths under _main in COMMON

    _main->_SetOUTPUT
    ___eetoc->_eecpymem
    _InitApp->_WaitForSYNC_PU
    ___ctoee->_memcpyee

Critical Paths under _isr in COMMON

    _isr->___bmul

Critical Paths under _main in BANK0

    _main->_Initial_Start
    _WriteEEPROMDefaults->_ReWriteEEPROM
    ___eetoc->_eecpymem
    _INC_EEPROM_MODE->_ReWriteEEPROM
    _ReWriteEEPROM->___ctoee
    ___ctoee->_memcpyee

Critical Paths under _isr in BANK0

    None.

Critical Paths under _main in BANK1

    None.

Critical Paths under _isr in BANK1

    None.

Call Graph Tables:

 ---------------------------------------------------------------------------------
 (Depth) Function   	        Calls       Base Space   Used Autos Params    Refs
 ---------------------------------------------------------------------------------
 (0) _main                                                 1     1      0    6791
                                             20 BANK0      1     1      0
                _ConfigureOscillator
                    _INC_EEPROM_MODE
                            _InitApp
                      _Initial_Start
                      _ReWriteEEPROM
                          _SetOUTPUT
             _Update_Input_Mode_Type
 ---------------------------------------------------------------------------------
 (1) _SetOUTPUT                                            2     2      0      70
                                              4 COMMON     2     2      0
 ---------------------------------------------------------------------------------
 (1) _Initial_Start                                        3     3      0    3738
                                             17 BANK0      3     3      0
          _Update_ComboPattern_Index
             _Update_Input_Mode_Type
                _WriteEEPROMDefaults
                            ___eetoc
 ---------------------------------------------------------------------------------
 (2) _WriteEEPROMDefaults                                  0     0      0    2463
                      _ReWriteEEPROM
                            ___eetoc
 ---------------------------------------------------------------------------------
 (2) ___eetoc                                              2     2      0    1049
                                             14 BANK0      2     2      0
                           _eecpymem
 ---------------------------------------------------------------------------------
 (3) _eecpymem                                             4     2      2     890
                                              4 COMMON     2     0      2
                                             12 BANK0      2     2      0
 ---------------------------------------------------------------------------------
 (1) _Update_Input_Mode_Type                               0     0      0       0
          _Update_ComboPattern_Index
 ---------------------------------------------------------------------------------
 (1) _InitApp                                              0     0      0      25
                     _WaitForSYNC_PU
 ---------------------------------------------------------------------------------
 (2) _WaitForSYNC_PU                                       1     1      0      25
                                              4 COMMON     1     1      0
 ---------------------------------------------------------------------------------
 (1) _INC_EEPROM_MODE                                      1     1      0    1479
                                             17 BANK0      1     1      0
                      _ReWriteEEPROM
          _Update_ComboPattern_Index
 ---------------------------------------------------------------------------------
 (2) _Update_ComboPattern_Index                            0     0      0       0
 ---------------------------------------------------------------------------------
 (1) _ReWriteEEPROM                                        1     1      0    1414
                                             16 BANK0      1     1      0
                            ___ctoee
 ---------------------------------------------------------------------------------
 (2) ___ctoee                                              2     1      1    1222
                                             14 BANK0      2     1      1
                           _memcpyee
 ---------------------------------------------------------------------------------
 (3) _memcpyee                                             4     2      2     890
                                              4 COMMON     2     0      2
                                             12 BANK0      2     2      0
 ---------------------------------------------------------------------------------
 (1) _ConfigureOscillator                                  0     0      0       0
 ---------------------------------------------------------------------------------
 Estimated maximum stack depth 3
 ---------------------------------------------------------------------------------
 (Depth) Function   	        Calls       Base Space   Used Autos Params    Refs
 ---------------------------------------------------------------------------------
 (6) _isr                                                 13    13      0     586
                                              3 COMMON     1     1      0
                                              0 BANK0     12    12      0
                    _Read_Mode_Input
                             ___bmul
                        i1_SetOUTPUT
 ---------------------------------------------------------------------------------
 (7) i1_SetOUTPUT                                          2     2      0      70
                                              0 COMMON     2     2      0
 ---------------------------------------------------------------------------------
 (7) ___bmul                                               3     2      1     468
                                              0 COMMON     3     2      1
 ---------------------------------------------------------------------------------
 (7) _Read_Mode_Input                                      0     0      0       0
 ---------------------------------------------------------------------------------
 Estimated maximum stack depth 7
 ---------------------------------------------------------------------------------

 Call Graph Graphs:

 _main (ROOT)
   _ConfigureOscillator
   _INC_EEPROM_MODE
     _ReWriteEEPROM
       ___ctoee
         _memcpyee
     _Update_ComboPattern_Index
   _InitApp
     _WaitForSYNC_PU
   _Initial_Start
     _Update_ComboPattern_Index
     _Update_Input_Mode_Type
       _Update_ComboPattern_Index
     _WriteEEPROMDefaults
       _ReWriteEEPROM
         ___ctoee
           _memcpyee
       ___eetoc
         _eecpymem
     ___eetoc
       _eecpymem
   _ReWriteEEPROM
     ___ctoee
       _memcpyee
   _SetOUTPUT
   _Update_Input_Mode_Type
     _Update_ComboPattern_Index

 _isr (ROOT)
   _Read_Mode_Input
   ___bmul
   i1_SetOUTPUT

 Address spaces:
Name               Size   Autos  Total    Cost      Usage
BITCOMMON            E      0       0       0        0.0%
EEDATA             100      0       5       0        2.0%
NULL                 0      0       0       0        0.0%
CODE                 0      0       0       0        0.0%
COMMON               E      6       A       1       71.4%
BITSFR0              0      0       0       1        0.0%
SFR0                 0      0       0       1        0.0%
BITSFR1              0      0       0       2        0.0%
SFR1                 0      0       0       2        0.0%
STACK                0      0       0       2        0.0%
BITBANK0            50      0       0       3        0.0%
BANK0               50     15      3B       4       73.8%
BANK1               20      0       0       5        0.0%
ABS                  0      0      45       6        0.0%
BITBANK1            20      0       0       7        0.0%
DATA                 0      0      45       8        0.0%


Microchip Technology PIC Macro Assembler V1.38 build -256452561 
Symbol Table                                                                                   Fri Jan 20 15:56:58 2017

                        __CFG_CP$ON 0000                                   pc 0002  
                  _ROM_Sub_Patterns 0302                      ___bmul@product 0071  
            _Update_Input_Mode_Type 0037                                  _RD 04E0  
                       __CFG_CPD$ON 0000                                  _WR 04E1  
                                fsr 0004              Initial_Start@read_data 0058  
                               l215 0058                                 l305 0077  
                               l360 001E                                 l257 003E  
                               l282 062A                                 l275 0603  
                               l372 0697                                 l365 0027  
                               l377 06A4                                 _GIE 005F  
                      ___ctoee@addr 0055                                 _WPU 0095  
                      ___ctoee@data 0054                                 _isr 04A6  
                               fsr0 0004                                 indf 0000  
                _GLOBAL_CHANNELS_EN 0024      _GLOBAL_sub_patterns_index_copy 0034  
                              l2200 0636                                l2114 07AE  
                              l2106 079F                                l2130 0745  
                              l2044 06A0                                l2124 0744  
                              l2204 063E                                l2070 07DB  
                              l1510 0064                                l2230 065A  
                              l2214 0648                                l1504 0063  
                              l2056 0023                                l2136 075E  
                              l2224 0653                                l2234 065E  
                              l2170 0605                                l2162 05F7  
                              l2146 05E8                                l1532 0043  
                              l1550 0729                                l2190 062C  
                              l1472 0667                                l1560 0738  
                              l1552 072C                                l2184 061F  
                              l2168 05FF                                l1562 073B  
                              l1492 068C                                l2188 0626  
                              l1494 068D                                l1486 0681  
                              l1478 0676                                ?_isr 0070  
                      __CFG_WDTE$ON 0000                                _GPIO 0005  
                              u2480 0613                                u2490 0614  
                              i1l62 057B                                i1l83 05CF  
                              i1l85 05D8                                _TMR0 0001  
                              _WREN 04E2              __size_of_ReWriteEEPROM 0023  
                     __CFG_FCMEN$ON 0000            __size_of_Read_Mode_Input 0025  
                              _main 05E3                                btemp 007E  
                     __CFG_BOREN$ON 0000              __size_of_Initial_Start 0027  
                              ltemp 007E                                start 000F  
                              ttemp 007E                                wtemp 007E  
                     __CFG_IESO$OFF 0000                   ___bmul@multiplier 0072  
       _GLOBAL_Selected_Mode_Number 002E                     __end_of_InitApp 078B  
                             ??_isr 0046                      _WaitForSYNC_PU 0063  
  _GLOBAL_sub_patterns_column_index 0079                               ?_main 0070  
                   __end_of___eetoc 0063                               _EEADR 009B  
                   __end_of___ctoee 0074                               _CARRY 0018  
                             _ANSEL 009F    _GLOBAL_combo_patterns_index_copy 0032  
               _ConfigureOscillator 0074             __end_of_INC_EEPROM_MODE 07B0  
      _GLOBAL_SYNC_Line_LOW_counter 002C                        main@tempvar1 005A  
                             pclath 000A            _GLOBAL_MODE1_LOW_counter 0028  
                             ltemp0 007E                               ltemp1 0082  
                             ltemp2 0086                               ltemp3 0080  
                             ttemp0 007E                               ttemp1 0081  
                             ttemp2 0084                               ttemp3 0087  
                             ttemp4 007F                               status 0003  
                             wtemp0 007E                               wtemp1 0080  
                             wtemp2 0082                               wtemp3 0084  
                             wtemp4 0086                               wtemp5 0088  
                             wtemp6 007F                ?_ConfigureOscillator 0070  
                    ReWriteEEPROM@i 0056                      __CFG_MCLRE$OFF 0000  
                   __initialization 0010              __end_of_WaitForSYNC_PU 006D  
                      __end_of_main 0667         ??_Update_ComboPattern_Index 0074  
                     _ReWriteEEPROM 07D5                              ??_main 0076  
            SetOUTPUT@temporaryGPIO 0075                       _Initial_Start 073D  
                    Initial_Start@i 0059                              _EEDATA 009A  
                            _EECON1 009C                              _EECON2 009D  
                            _CMCON0 0019                              i1l1580 07C3  
                            i1l1572 07B9                              i1l1820 051E  
                            i1l1812 0514                              i1l1804 050A  
                            i1l1590 07CC                              i1l1582 07C4  
                            i1l1574 07BC                              i1l1750 06D9  
                            i1l1830 0572                              i1l1760 06E8  
                            i1l1808 050F                              i1l1834 0577  
                            i1l1596 07D3                              i1l1748 06D6  
                            i1l1860 0599                              i1l1852 0590  
                            i1l1758 06E5                              i1l1838 057A  
                            i1l1776 04B2                              i1l1786 04C0  
                            i1l1868 05A2                              i1l1796 04FF  
                            i1l1894 05BF                              i1l1896 05C0  
                            i1l1888 05B5                              _INTCON 000B  
          _GLOBAL_MODE2_LOW_counter 002A                              _OSCCON 008F  
         _bGLOBAL_SYNC_Line_PRESSED 0044                              _WDTCON 0018  
                            _TRISIO 0085                   _bGLOBAL_STEADY_ON 0043  
                         ??_InitApp 0075               ??_ConfigureOscillator 0074  
                  _GLOBAL_Mode_copy 0020                      __CFG_PWRTE$OFF 0000  
                  __end_of_eecpymem 0037                  __size_of_SetOUTPUT 0029  
       __end_of_WriteEEPROMDefaults 0059                   ??_Read_Mode_Input 0070  
                            ___bmul 06EA                     ?_WaitForSYNC_PU 0070  
                         ??___eetoc 0076                           ??___ctoee 0076  
                       memcpyee@ptr 0052                      ?_ReWriteEEPROM 0070  
                  __end_of_memcpyee 06C0                   _bGLOBAL_SYNC_SENT 0045  
                    ?_Initial_Start 0070            _bGLOBAL_CHANGING_PATTERN 0038  
                      ?i1_SetOUTPUT 0070                              saved_w 007E  
                  ?_INC_EEPROM_MODE 0070            __end_of_ROM_Sub_Patterns 03D4  
         _Update_ComboPattern_Index 0667             __end_of__initialization 0019  
             _ROM_Sub_Patterns_Time 03D4                      _EEprom_InPhase 0000  
               ___bmul@multiplicand 0070             ?_Update_Input_Mode_Type 0070  
                    __pcstackCOMMON 0070                      _OPTION_REGbits 0081  
                 __end_of_SetOUTPUT 073D                          __pbssBANK0 0020  
    __end_of_Update_Input_Mode_Type 004C    _bGLOBAL_CHANGING_PATTERN_Enforce 0039  
                        __pmaintext 05E3                     ??_ReWriteEEPROM 0076  
                           ?___bmul 0070                          __pintentry 0004  
                   ??_Initial_Start 0057       _bGLOBAL_OUTPUT_BUFFER_CHANGED 0042  
                         ?_eecpymem 0074       INC_EEPROM_MODE@Temp_Mode_Data 0057  
         _GLOBAL_Selected_Mode_Type 002F               _bGLOBAL_MODE1_PRESSED 0040  
             _bGLOBAL_MODE2_PRESSED 0041                          __stringtab 0100  
                         ?_memcpyee 0074                             _InitApp 0764  
                   __size_of___bmul 002A                             ___eetoc 0059  
                           ___ctoee 006D          _bGLOBAL_END_OF_CYCLE_COND1 003C  
        _bGLOBAL_END_OF_CYCLE_COND2 003D                        memcpyee@from 0074  
                           __ptext1 0714                             __ptext2 073D  
                           __ptext3 004C                             __ptext4 0059  
                           __ptext5 001B                             __ptext6 0037  
                           __ptext7 0764                             __ptext8 0063  
                           __ptext9 078B                        memcpyee@size 0075  
                      __size_of_isr 013D                          ??_eecpymem 0076  
              __size_ofi1_SetOUTPUT 002A                             clrloop0 07F9  
              end_of_initialization 0019                     _Read_Mode_Input 07B0  
               _bGLOBAL_ENABLE_LEDS 003B                          ??_memcpyee 0076  
                  ??_WaitForSYNC_PU 0074                          eecpymem@cp 0052  
                        eecpymem@to 0053  __size_of_Update_ComboPattern_Index 002D  
         _GLOBAL_sub_patterns_index 0033           _GLOBAL_sub_patterns_timer 0035  
                      __pstringtext 0100         _GLOBAL_combo_patterns_index 0078  
       __end_of_ConfigureOscillator 007B       _GLOBAL_combo_patterns_counter 0031  
                    __end_of___bmul 0714        __size_of_WriteEEPROMDefaults 000D  
               start_initialization 0010             __end_of_Read_Mode_Input 07D5  
                       __end_of_isr 05E3                           _SetOUTPUT 0714  
          __size_of_INC_EEPROM_MODE 0025                            ??___bmul 0071  
                        memcpyee@to 0053                         __pbssEEDATA 0000  
                       __pbssCOMMON 0076                           ___latbits 0000  
                     __pcstackBANK0 0046                   __size_of_eecpymem 001C  
                        ?_SetOUTPUT 0070                            ?_InitApp 0070  
                 __size_of_memcpyee 002C                            ?___eetoc 0070  
                          ?___ctoee 0054               __end_of_ReWriteEEPROM 07F8  
             __end_of_Initial_Start 0764          __end_of_ROM_COMBO_Patterns 0302  
                  ?_Read_Mode_Input 0070   _bGLOBAL_DISABLE_SYNC_Line_PRESSED 003A  
                 interrupt_function 0004                            _GPIObits 0005  
                         clear_ram0 07F8                   ??_INC_EEPROM_MODE 0076  
          _GLOBAL_SYNC_Line_counter 002D                         __stringbase 0112  
    _GLOBAL_Selected_Mode_Type_copy 0030                       ??i1_SetOUTPUT 0070  
            _bGLOBAL_IS_PROGRAMMING 003E                         ??_SetOUTPUT 0074  
          ??_Update_Input_Mode_Type 0074                 _WriteEEPROMDefaults 004C  
         _GLOBAL_SYNC_PULSE_Counter 0076                    __size_of_InitApp 0027  
                     isr@temp_data1 0073                    __size_of___eetoc 000A  
                   _bGLOBAL_InPhase 003F                    __size_of___ctoee 0007  
              ?_WriteEEPROMDefaults 0070                  __end_of__stringtab 0112  
                      eecpymem@from 0074                            _eecpymem 001B  
                      eecpymem@size 0075                            __ptext10 0667  
                          __ptext11 07D5                            __ptext12 006D  
                          __ptext13 0694                            __ptext14 0074  
                          __ptext15 04A6                            __ptext16 06C0  
                          __ptext17 06EA                            __ptext18 07B0  
               __end_ofi1_SetOUTPUT 06EA                            _memcpyee 0694  
                     __size_of_main 0084        __size_of_ConfigureOscillator 0007  
          i1SetOUTPUT@temporaryGPIO 0071          ?_Update_ComboPattern_Index 0070  
           __size_of_WaitForSYNC_PU 000A               ??_WriteEEPROMDefaults 0076  
                        _INTCONbits 000B  _GLOBAL_combo_patterns_column_index 0077  
                     _OUTPUT_BUFFER 0036       __end_of_ROM_Sub_Patterns_Time 04A6  
                          intlevel1 0000                         _EEprom_mode 0002  
   __size_of_Update_Input_Mode_Type 0015                           stringcode 010A  
               _EEprom_Written_Flag 0004                          _OSCCONbits 008F  
             WaitForSYNC_PU@temp001 0074   __end_of_Update_ComboPattern_Index 0694  
             _GLOBAL_Dummy_Counter2 0027                  _OUTPUT_BUFFER_COPY 0037  
                       i1_SetOUTPUT 06C0                            stringtab 0100  
              _bGLOBAL_InPhase_copy 0022                _GLOBAL_Dummy_Counter 0026  
           _GLOBAL_CHANNELS_EN_copy 0025                  __CFG_FOSC$INTOSCIO 0000  
                   _INC_EEPROM_MODE 078B                  _ROM_COMBO_Patterns 0112  
                        _TRISIObits 0085                _GLOBAL_MODE1_counter 0029  
                      ___eetoc@addr 0054                        ___eetoc@data 0055  
              _GLOBAL_MODE2_counter 002B  
